(lp1
(lp2
I1
aI2
aa(lp3
I1
aI39
aa(lp4
I2
aI3
aa(lp5
I2
aI25
aa(lp6
I2
aI30
aa(lp7
I3
aI4
aa(lp8
I3
aI18
aa(lp9
I4
aI5
aa(lp10
I4
aI14
aa(lp11
I5
aI6
aa(lp12
I5
aI8
aa(lp13
I6
aI7
aa(lp14
I6
aI11
aa(lp15
I6
aI31
aa(lp16
I7
aI8
aa(lp17
I8
aI9
aa(lp18
I9
aI39
aa(lp19
I10
aI11
aa(lp20
I10
aI13
aa(lp21
I10
aI32
aa(lp22
I11
aI12
aa(lp23
I12
aI13
aa(lp24
I13
aI14
aa(lp25
I14
aI15
aa(lp26
I15
aI16
aa(lp27
I16
aI17
aa(lp28
I16
aI19
aa(lp29
I16
aI21
aa(lp30
I16
aI24
aa(lp31
I17
aI18
aa(lp32
I17
aI27
aa(lp33
I19
aI20
aa(lp34
I19
aI33
aa(lp35
I20
aI34
aa(lp36
I21
aI22
aa(lp37
I22
aI23
aa(lp38
I22
aI35
aa(lp39
I23
aI24
aa(lp40
I23
aI36
aa(lp41
I25
aI26
aa(lp42
I25
aI37
aa(lp43
I26
aI27
aa(lp44
I26
aI28
aa(lp45
I26
aI29
aa(lp46
I28
aI29
aa(lp47
I29
aI38
aa.