(dp1
I1
(dp2
S'24'
p3
F0.18050569230769231
sS'1234'
p4
F0.15009365151282053
sS'13'
p5
F0.2271846153846154
sS'12'
p6
F0.072115487179487181
sS'14'
p7
F0.20140923076923076
sS'23'
p8
F0.13289389743589744
sS'34'
p9
F0.1152000512820513
sS'1'
F0.181995641025641
sS'3'
F0.017578282051282049
sS'2'
F0.063682102564102561
sS'124'
p10
F0.087208897435897451
sS'4'
F0.087931487179487178
sS'134'
p11
F0.15009365151282053
sS'234'
p12
F0.15099082051282053
sS'123'
p13
F0.089627538461538467
ssI2
(dp14
S'146'
p15
F0.11115645389743591
sS'12346'
p16
F0.19243340515384619
sS'156'
p17
F0.087372838512820503
sS'2456'
p18
F0.18338384615384618
sS'1345'
p19
F0.13927976158974351
sS'456'
p20
F0.14678184615384621
sS'136'
p21
F0.13474532569230765
sS'135'
p22
F0.13474532569230765
sS'134'
p23
F0.091285871794871812
sS'234'
p24
F0.26171784615384619
sS'235'
p25
F0.18080748717948714
sS'236'
p26
F0.18080748717948714
sS'123456'
p27
F0.19243340515384619
sS'256'
p28
F0.14421020512820512
sS'2345'
p29
F0.23113684869230761
sS'25'
p30
F0.14421020512820512
sS'26'
p31
F0.14421020512820512
sS'2346'
p32
F0.23113684869230761
sS'3456'
p33
F0.17591338461538458
sS'23'
p34
F0.1200271794871795
sS'46'
p35
F0.14678184615384621
sS'45'
p36
F0.14678184615384621
sS'3'
F0.10792984615384614
sS'1'
F0.039725846153846153
sS'345'
p37
F0.17591338461538458
sS'346'
p38
F0.17591338461538458
sS'2'
F0.019757538461538462
sS'5'
F0.12348379487179488
sS'4'
F0.023922641025641019
sS'6'
F0.12348379487179488
sS'12356'
p39
F0.14187963338461543
sS'1234'
p40
F0.19243340515384619
sS'24'
p41
F0.049686923076923059
sS'1236'
p42
F0.14187963338461543
sS'145'
p43
F0.11115645389743591
sS'1356'
p44
F0.13474532569230765
sS'245'
p45
F0.18338384615384618
sS'123'
p46
F0.091757589743589774
sS'124'
p47
F0.10322738461538457
sS'1346'
p48
F0.13927976158974351
sS'126'
p49
F0.10544153082051283
sS'1256'
p50
F0.10544153082051283
sS'23456'
p51
F0.23113684869230761
sS'13'
p52
F0.085035282051282066
sS'12456'
p53
F0.1449576846666667
sS'15'
p54
F0.087372838512820503
sS'14'
p55
F0.065741589743589762
sS'16'
p56
F0.087372838512820503
sS'13456'
p57
F0.13927976158974351
sS'2356'
p58
F0.18080748717948714
sS'1235'
p59
F0.14187963338461543
sS'56'
p60
F0.12348379487179488
sS'36'
p61
F0.17180969230769233
sS'35'
p62
F0.17180969230769233
sS'34'
p63
F0.14913989743589742
sS'356'
p64
F0.17180969230769233
sS'1456'
p65
F0.11115645389743591
sS'246'
p66
F0.18338384615384618
sS'1245'
p67
F0.1449576846666667
sS'1246'
p68
F0.1449576846666667
sS'12'
p69
F0.059289205128205132
sS'12345'
p70
F0.19243340515384619
sS'125'
p71
F0.10544153082051283
ssI3
(dp72
S'146'
p73
F0.14412131551282051
sS'12346'
p74
F0.15210318830769229
sS'156'
p75
F0.13885839243589745
sS'2456'
p76
F0.10484599999999999
sS'1345'
p77
F0.15210318830769229
sS'456'
p78
F0.14437384615384619
sS'136'
p79
F0.14141890525641024
sS'135'
p80
F0.14141890525641024
sS'134'
p81
F0.15210318830769229
sS'234'
p82
F0.15177399999999999
sS'235'
p83
F0.1011982564102564
sS'236'
p84
F0.1011982564102564
sS'123456'
p85
F0.15210318830769229
sS'256'
p86
F0.1001353846153846
sS'2345'
p87
F0.15453551382051284
sS'25'
p88
F0.1001353846153846
sS'26'
p89
F0.1001353846153846
sS'2346'
p90
F0.15453551382051284
sS'3456'
p91
F0.15453551382051284
sS'23'
p92
F0.058959230769230764
sS'46'
p93
F0.14437384615384619
sS'45'
p94
F0.14437384615384619
sS'3'
F0.023922641025641019
sS'1'
F0.092448102564102561
sS'345'
p95
F0.15453551382051284
sS'346'
p96
F0.15453551382051284
sS'2'
F0.025539692307692305
sS'5'
F0.13770615384615381
sS'4'
F0.011656076923076922
sS'6'
F0.13770615384615381
sS'12356'
p97
F0.099269264230769247
sS'1234'
p98
F0.15210318830769229
sS'24'
p99
F0.030960358974358979
sS'1236'
p100
F0.099269264230769247
sS'145'
p101
F0.14412131551282051
sS'1356'
p102
F0.14141890525641024
sS'245'
p103
F0.10484599999999999
sS'123'
p104
F0.049981794871794848
sS'124'
p105
F0.054642769230769231
sS'1346'
p106
F0.15210318830769229
sS'126'
p107
F0.098360084743589732
sS'1256'
p108
F0.098360084743589732
sS'23456'
p109
F0.15453551382051284
sS'13'
p110
F0.095482974358974362
sS'12456'
p111
F0.10235049500000001
sS'15'
p112
F0.13885839243589745
sS'14'
p113
F0.09900769230769231
sS'16'
p114
F0.13885839243589745
sS'13456'
p115
F0.15210318830769229
sS'2356'
p116
F0.1011982564102564
sS'1235'
p117
F0.099269264230769247
sS'56'
p118
F0.13770615384615381
sS'36'
p119
F0.14026015384615384
sS'35'
p120
F0.14026015384615384
sS'34'
p121
F0.082753589743589762
sS'356'
p122
F0.14026015384615384
sS'1456'
p123
F0.14412131551282051
sS'246'
p124
F0.10484599999999999
sS'1245'
p125
F0.10235049500000001
sS'1246'
p126
F0.10235049500000001
sS'12'
p127
F0.050039794871794871
sS'12345'
p128
F0.15210318830769229
sS'125'
p129
F0.098360084743589732
ssI4
(dp130
S'146'
p131
F0.20060438738461536
sS'12346'
p132
F0.19503800874358979
sS'156'
p133
F0.20030977200000002
sS'2456'
p134
F0.13746841025641024
sS'1345'
p135
F0.19503800874358979
sS'456'
p136
F0.19664692307692305
sS'136'
p137
F0.20752002841025635
sS'135'
p138
F0.20752002841025635
sS'134'
p139
F0.19503800874358979
sS'234'
p140
F0.18048876923076926
sS'235'
p141
F0.14299369230769227
sS'236'
p142
F0.14299369230769227
sS'123456'
p143
F0.19503800874358979
sS'256'
p144
F0.13662887179487179
sS'2345'
p145
F0.19146115982051284
sS'25'
p146
F0.13662887179487179
sS'26'
p147
F0.13662887179487179
sS'2346'
p148
F0.19146115982051284
sS'3456'
p149
F0.19146115982051284
sS'23'
p150
F0.086252410256410256
sS'46'
p151
F0.19664692307692305
sS'45'
p152
F0.19664692307692305
sS'3'
F0.028485102564102562
sS'1'
F0.15858410256410255
sS'345'
p153
F0.19146115982051284
sS'346'
p154
F0.19146115982051284
sS'2'
F0.037573435897435892
sS'5'
F0.19643538461538462
sS'4'
F0.046851641025641017
sS'6'
F0.19643538461538462
sS'12356'
p155
F0.14634874635897435
sS'1234'
p156
F0.19503800874358979
sS'24'
p157
F0.13568148717948714
sS'1236'
p158
F0.14634874635897435
sS'145'
p159
F0.20060438738461536
sS'1356'
p160
F0.20752002841025635
sS'245'
p161
F0.13746841025641024
sS'123'
p162
F0.099789230769230769
sS'124'
p163
F0.092392974358974339
sS'1346'
p164
F0.19503800874358979
sS'126'
p165
F0.1405413104615385
sS'1256'
p166
F0.1405413104615385
sS'23456'
p167
F0.19146115982051284
sS'13'
p168
F0.1711779487179487
sS'12456'
p169
F0.14129069507692302
sS'15'
p170
F0.20030977200000002
sS'14'
p171
F0.16126948717948714
sS'16'
p172
F0.20030977200000002
sS'13456'
p173
F0.19503800874358979
sS'2356'
p174
F0.14299369230769227
sS'1235'
p175
F0.14634874635897435
sS'56'
p176
F0.19643538461538462
sS'36'
p177
F0.20242076923076924
sS'35'
p178
F0.20242076923076924
sS'34'
p179
F0.12670584615384614
sS'356'
p180
F0.20242076923076924
sS'1456'
p181
F0.20060438738461536
sS'246'
p182
F0.13746841025641024
sS'1245'
p183
F0.14129069507692302
sS'1246'
p184
F0.14129069507692302
sS'12'
p185
F0.091947179487179495
sS'12345'
p186
F0.19503800874358979
sS'125'
p187
F0.1405413104615385
ssI5
(dp188
S'1235'
p189
F0.216953642774359
sS'1345'
p190
F0.17074233515384615
sS'135'
p191
F0.17074233515384615
sS'134'
p192
F0.17074233515384615
sS'234'
p193
F0.22081643582564103
sS'235'
p194
F0.22081643582564103
sS'2345'
p195
F0.22081643582564103
sS'25'
p196
F0.17260948717948721
sS'23'
p197
F0.22855897435897438
sS'45'
p198
F0.17286871794871794
sS'1'
F0.12430179487179488
sS'345'
p199
F0.17459461538461543
sS'3'
F0.0057197102564102544
sS'2'
F0.11931712820512817
sS'5'
F0.17286871794871794
sS'4'
F0.17286871794871794
sS'1234'
p200
F0.216953642774359
sS'24'
p201
F0.17260948717948721
sS'145'
p202
F0.16903874541025643
sS'245'
p203
F0.17260948717948721
sS'123'
p204
F0.216953642774359
sS'124'
p205
F0.16877874541025642
sS'125'
p206
F0.16877874541025642
sS'13'
p207
F0.12727641025641026
sS'12'
p208
F0.12292794871794868
sS'15'
p209
F0.16903874541025643
sS'14'
p210
F0.16903874541025643
sS'35'
p211
F0.17459461538461543
sS'34'
p212
F0.17459461538461543
sS'1245'
p213
F0.16877874541025642
sS'12345'
p214
F0.216953642774359
ssI6
(dp215
S'146'
p216
F0.14050613299999998
sS'12346'
p217
F0.14423200528205127
sS'156'
p218
F0.13986869710256411
sS'2456'
p219
F0.095482410256410286
sS'1345'
p220
F0.14423200528205127
sS'456'
p221
F0.13959261538461534
sS'136'
p222
F0.14003823556410255
sS'135'
p223
F0.14003823556410255
sS'134'
p224
F0.14423200528205127
sS'234'
p225
F0.13900723076923074
sS'235'
p226
F0.095594153846153843
sS'236'
p227
F0.095594153846153843
sS'123456'
p228
F0.14423200528205127
sS'256'
p229
F0.095130564102564111
sS'2345'
p230
F0.14483187228205124
sS'25'
p231
F0.095130564102564111
sS'26'
p232
F0.095130564102564111
sS'2346'
p233
F0.14483187228205124
sS'3456'
p234
F0.14483187228205124
sS'23'
p235
F0.032837794871794876
sS'46'
p236
F0.13959261538461534
sS'45'
p237
F0.13959261538461534
sS'3'
F0.0057197102564102544
sS'1'
F0.091647384615384617
sS'345'
p238
F0.14483187228205124
sS'346'
p239
F0.14483187228205124
sS'2'
F0.031285076923076915
sS'5'
F0.138670358974359
sS'4'
F0.035223179487179485
sS'6'
F0.138670358974359
sS'12356'
p240
F0.094679568897435881
sS'1234'
p241
F0.14423200528205127
sS'24'
p242
F0.076059487179487184
sS'1236'
p243
F0.094679568897435881
sS'145'
p244
F0.14050613299999998
sS'1356'
p245
F0.14003823556410255
sS'245'
p246
F0.095482410256410286
sS'123'
p247
F0.045909794871794876
sS'124'
p248
F0.043345692307692307
sS'1346'
p249
F0.14423200528205127
sS'126'
p250
F0.094390594538461534
sS'1256'
p251
F0.094390594538461534
sS'23456'
p252
F0.14483187228205124
sS'13'
p253
F0.095324871794871785
sS'12456'
p254
F0.0946800817179487
sS'15'
p255
F0.13986869710256411
sS'14'
p256
F0.091812769230769226
sS'16'
p257
F0.13986869710256411
sS'13456'
p258
F0.14423200528205127
sS'2356'
p259
F0.095594153846153843
sS'1235'
p260
F0.094679568897435881
sS'56'
p261
F0.138670358974359
sS'36'
p262
F0.14004846153846148
sS'35'
p263
F0.14004846153846148
sS'34'
p264
F0.071540717948717955
sS'356'
p265
F0.14004846153846148
sS'1456'
p266
F0.14050613299999998
sS'246'
p267
F0.095482410256410286
sS'1245'
p268
F0.0946800817179487
sS'1246'
p269
F0.0946800817179487
sS'12'
p270
F0.0441331282051282
sS'12345'
p271
F0.14423200528205127
sS'125'
p272
F0.094390594538461534
ssI7
(dp273
S'236910'
p274
F0.204328985497436
sS'78910'
p275
F0.23399437421538466
sS'345610'
p276
F0.28201234380769236
sS'14679'
p277
F0.21076696520769234
sS'14678'
p278
F0.28734595480769226
sS'24578910'
p279
F0.29514594468974359
sS'14910'
p280
F0.28734595480769226
sS'1269'
p281
F0.28952438023076921
sS'145610'
p282
F0.28734595480769226
sS'2345810'
p283
F0.29069387253333334
sS'14567910'
p284
F0.28734595480769226
sS'12456789'
p285
F0.29562160697179485
sS'34710'
p286
F0.27784796395897443
sS'457810'
p287
F0.27784796395897443
sS'567810'
p288
F0.23399437421538466
sS'123457910'
p289
F0.29562160697179485
sS'15789'
p290
F0.23932926726666662
sS'35789'
p291
F0.23399437421538466
sS'134567810'
p292
F0.28734595480769226
sS'13457910'
p293
F0.28734595480769226
sS'12578910'
p294
F0.24695312455897425
sS'345'
p295
F0.26830820512820514
sS'346'
p296
F0.26189974358974361
sS'347'
p297
F0.26830820512820514
sS'12456810'
p298
F0.29562160697179485
sS'123678910'
p299
F0.24695312455897425
sS'345689'
p300
F0.28201234380769236
sS'810'
p301
F0.12938410256410257
sS'1367810'
p302
F0.23932926726666662
sS'348'
p303
F0.27516589743589748
sS'349'
p304
F0.26189974358974361
sS'456710'
p305
F0.28201234380769236
sS'2910'
p306
F0.32330898549743581
sS'15610'
p307
F0.23932926726666662
sS'145678910'
p308
F0.28734595480769226
sS'12456910'
p309
F0.29562160697179485
sS'4567910'
p310
F0.28201234380769236
sS'37910'
p311
F0.23399437421538466
sS'45678910'
p312
F0.28201234380769236
sS'710'
p313
F0.12416524601025639
sS'4579'
p314
F0.20632079010512827
sS'129'
p315
F0.28952438023076921
sS'267910'
p316
F0.24711874432820519
sS'17910'
p317
F0.23932926726666662
sS'13458'
p318
F0.28734595480769226
sS'2310'
p319
F0.08020667780512819
sS'479'
p320
F0.20632079010512827
sS'358910'
p321
F0.23399437421538466
sS'48'
p322
F0.1405958974358974
sS'247910'
p323
F0.29514594468974359
sS'5910'
p324
F0.23399437421538466
sS'357810'
p325
F0.12416524601025639
sS'35610'
p326
F0.23399437421538466
sS'1246910'
p327
F0.29562160697179485
sS'4789'
p328
F0.28201234380769236
sS'157910'
p329
F0.23932926726666662
sS'4578'
p330
F0.27784796395897443
sS'3678'
p331
F0.23399437421538466
sS'3679'
p332
F0.22446615384615382
sS'568910'
p333
F0.23399437421538466
sS'24579'
p334
F0.29514594468974359
sS'24578'
p335
F0.29069387253333334
sS'278'
p336
F0.12827592381538472
sS'279'
p337
F0.24711874432820519
sS'1234578910'
p338
F0.29562160697179485
sS'1369'
p339
F0.083696841769230743
sS'1359'
p340
F0.22980104689743591
sS'234910'
p341
F0.29514594468974359
sS'135610'
p342
F0.23932926726666662
sS'46'
p343
F0.16133666666666666
sS'124678'
p344
F0.29562160697179485
sS'124679'
p345
F0.29562160697179485
sS'2389'
p346
F0.204328985497436
sS'124910'
p347
F0.29562160697179485
sS'1234'
p348
F0.29562160697179485
sS'1235'
p349
F0.20438130843076921
sS'1236'
p350
F0.16139925202564101
sS'1237'
p351
F0.20438130843076921
sS'247810'
p352
F0.29069387253333334
sS'2346910'
p353
F0.29514594468974359
sS'3589'
p354
F0.23399437421538466
sS'12345610'
p355
F0.29562160697179485
sS'1238'
p356
F0.16140437011282055
sS'1239'
p357
F0.16139925202564101
sS'235689'
p358
F0.24711874432820519
sS'5810'
p359
F0.12416524601025639
sS'237810'
p360
F0.12827592381538472
sS'12678910'
p361
F0.24695312455897425
sS'146710'
p362
F0.28734595480769226
sS'5678'
p363
F0.23399437421538466
sS'5679'
p364
F0.1582935897435897
sS'3456810'
p365
F0.28201234380769236
sS'12345810'
p366
F0.29562160697179485
sS'245'
p367
F0.29069387253333334
sS'39'
p368
F0.08549948717948716
sS'38'
p369
F0.076369846153846135
sS'4679'
p370
F0.20632079010512827
sS'24569'
p371
F0.29514594468974359
sS'2510'
p372
F0.12827592381538472
sS'2489'
p373
F0.29514594468974359
sS'37'
p374
F0.11463789743589742
sS'36'
p375
F0.08549948717948716
sS'35'
p376
F0.11463789743589742
sS'34'
p377
F0.26724769230769235
sS'125610'
p378
F0.24695312455897425
sS'1245'
p379
F0.29562160697179485
sS'1247'
p380
F0.29562160697179485
sS'1246'
p381
F0.29562160697179485
sS'1249'
p382
F0.29562160697179485
sS'1248'
p383
F0.29562160697179485
sS'134610'
p384
F0.28734595480769226
sS'345710'
p385
F0.27784796395897443
sS'567910'
p386
F0.23399437421538466
sS'2610'
p387
F0.32330898549743581
sS'23456789'
p388
F0.29514594468974359
sS'58910'
p389
F0.23399437421538466
sS'236810'
p390
F0.204328985497436
sS'1267910'
p391
F0.24695312455897425
sS'8910'
p392
F0.31023948717948735
sS'34610'
p393
F0.28201234380769236
sS'14567810'
p394
F0.28734595480769226
sS'12345678910'
p395
F0.29562160697179485
sS'23710'
p396
F0.12827592381538472
sS'12569'
p397
F0.24695312455897425
sS'12568'
p398
F0.24695312455897425
sS'2789'
p399
F0.24711874432820519
sS'3456'
p400
F0.27248335420769232
sS'3457'
p401
F0.26830820512820514
sS'134567910'
p402
F0.28734595480769226
sS'1234568'
p403
F0.29562160697179485
sS'1234569'
p404
F0.29562160697179485
sS'3458'
p405
F0.27784796395897443
sS'3459'
p406
F0.27248335420769232
sS'12567'
p407
F0.24695312455897425
sS'356789'
p408
F0.23399437421538466
sS'24710'
p409
F0.29069387253333334
sS'2689'
p410
F0.32330898549743581
sS'23456710'
p411
F0.29514594468974359
sS'6'
F0.1697407692307692
sS'24567'
p412
F0.29514594468974359
sS'157810'
p413
F0.19694668190769232
sS'1468'
p414
F0.28734595480769226
sS'134710'
p415
F0.28734595480769226
sS'234510'
p416
F0.29069387253333334
sS'38910'
p417
F0.19120666666666664
sS'13456789'
p418
F0.28734595480769226
sS'1345789'
p419
F0.28734595480769226
sS'123810'
p420
F0.16140437011282055
sS'15710'
p421
F0.19694668190769232
sS'123456789'
p422
F0.29562160697179485
sS'123569'
p423
F0.24695312455897425
sS'123568'
p424
F0.24695312455897425
sS'123567'
p425
F0.24695312455897425
sS'35678'
p426
F0.23399437421538466
sS'35679'
p427
F0.22446615384615382
sS'12367910'
p428
F0.24695312455897425
sS'478910'
p429
F0.28201234380769236
sS'1234789'
p430
F0.29562160697179485
sS'1378910'
p431
F0.23932926726666662
sS'1256710'
p432
F0.24695312455897425
sS'1234689'
p433
F0.29562160697179485
sS'123568910'
p434
F0.24695312455897425
sS'45689'
p435
F0.28201234380769236
sS'1245678'
p436
F0.29562160697179485
sS'1245679'
p437
F0.29562160697179485
sS'4678910'
p438
F0.28201234380769236
sS'14810'
p439
F0.28734595480769226
sS'15810'
p440
F0.19694668190769232
sS'13568910'
p441
F0.23932926726666662
sS'1348910'
p442
F0.28734595480769226
sS'12810'
p443
F0.28829411370256403
sS'1246810'
p444
F0.29562160697179485
sS'3456710'
p445
F0.28201234380769236
sS'12468910'
p446
F0.29562160697179485
sS'356810'
p447
F0.23399437421538466
sS'68910'
p448
F0.31023948717948735
sS'56710'
p449
F0.23399437421538466
sS'134568910'
p450
F0.28734595480769226
sS'12458'
p451
F0.29562160697179485
sS'14710'
p452
F0.28734595480769226
sS'238'
p453
F0.08020667780512819
sS'239'
p454
F0.16194435897435899
sS'235'
p455
F0.12827592381538472
sS'234'
p456
F0.28038205128205124
sS'4610'
p457
F0.28201234380769236
sS'236'
p458
F0.16194435897435899
sS'237'
p459
F0.12827592381538472
sS'2345'
p460
F0.29069387253333334
sS'2347'
p461
F0.29069387253333334
sS'2346'
p462
F0.29514594468974359
sS'124810'
p463
F0.29562160697179485
sS'2678910'
p464
F0.24711874432820519
sS'56789'
p465
F0.23399437421538466
sS'125810'
p466
F0.20438130843076921
sS'2349'
p467
F0.29514594468974359
sS'2348'
p468
F0.28761693421538453
sS'2469'
p469
F0.29514594468974359
sS'1'
F0.12187179487179486
sS'1345910'
p470
F0.28734595480769226
sS'25710'
p471
F0.12827592381538472
sS'124568910'
p472
F0.29562160697179485
sS'1237810'
p473
F0.20438130843076921
sS'34579'
p474
F0.27248335420769232
sS'146'
p475
F0.16550130330769228
sS'147'
p476
F0.21076696520769234
sS'145'
p477
F0.21076696520769234
sS'14568910'
p478
F0.28734595480769226
sS'15910'
p479
F0.23932926726666662
sS'3478910'
p480
F0.28201234380769236
sS'246910'
p481
F0.29514594468974359
sS'2468'
p482
F0.29514594468974359
sS'610'
p483
F0.31023948717948735
sS'135710'
p484
F0.19694668190769232
sS'148'
p485
F0.28734595480769226
sS'149'
p486
F0.16550130330769228
sS'14567'
p487
F0.21076696520769234
sS'1467810'
p488
F0.28734595480769226
sS'1234567910'
p489
F0.29562160697179485
sS'2678'
p490
F0.24711874432820519
sS'1810'
p491
F0.2796505128205129
sS'123'
p492
F0.1188274358974359
sS'13478'
p493
F0.28734595480769226
sS'13479'
p494
F0.277817990848718
sS'14569'
p495
F0.21076696520769234
sS'14568'
p496
F0.28734595480769226
sS'35678910'
p497
F0.23399437421538466
sS'13579'
p498
F0.22980104689743591
sS'245910'
p499
F0.29514594468974359
sS'26710'
p500
F0.24711874432820519
sS'1289'
p501
F0.32439798111282048
sS'4910'
p502
F0.28201234380769236
sS'156810'
p503
F0.23932926726666662
sS'1579'
p504
F0.16277514946153845
sS'1578'
p505
F0.19694668190769232
sS'689'
p506
F0.31023948717948735
sS'124789'
p507
F0.29562160697179485
sS'124'
p508
F0.29562160697179485
sS'1478'
p509
F0.28734595480769226
sS'1479'
p510
F0.21076696520769234
sS'125710'
p511
F0.20438130843076921
sS'47910'
p512
F0.28201234380769236
sS'125'
p513
F0.20438130843076921
sS'458'
p514
F0.27784796395897443
sS'2710'
p515
F0.12827592381538472
sS'124567'
p516
F0.29562160697179485
sS'2346789'
p517
F0.29514594468974359
sS'1349'
p518
F0.26716155971794869
sS'246710'
p519
F0.29514594468974359
sS'245789'
p520
F0.29514594468974359
sS'124568'
p521
F0.29562160697179485
sS'28910'
p522
F0.32330898549743581
sS'235810'
p523
F0.12827592381538472
sS'268910'
p524
F0.32330898549743581
sS'137'
p525
F0.18741846153846153
sS'136'
p526
F0.083696841769230743
sS'135'
p527
F0.18741846153846153
sS'134'
p528
F0.25511589743589741
sS'1245789'
p529
F0.29562160697179485
sS'139'
p530
F0.083696841769230743
sS'138'
p531
F0.15415897435897435
sS'1235689'
p532
F0.24695312455897425
sS'2458'
p533
F0.29069387253333334
sS'24'
p534
F0.10059538461538461
sS'25'
p535
F0.12827592381538472
sS'26'
p536
F0.28860923076923084
sS'27'
p537
F0.12827592381538472
sS'23'
p538
F0.032586153846153841
sS'12378'
p539
F0.20438130843076921
sS'12379'
p540
F0.24695312455897425
sS'28'
p541
F0.13483103677948721
sS'29'
p542
F0.28860923076923084
sS'13489'
p543
F0.28734595480769226
sS'34810'
p544
F0.27516589743589748
sS'2346810'
p545
F0.29514594468974359
sS'1379'
p546
F0.22980104689743591
sS'1378'
p547
F0.19694668190769232
sS'2347810'
p548
F0.29069387253333334
sS'2457'
p549
F0.29069387253333334
sS'13469'
p550
F0.26716155971794869
sS'234810'
p551
F0.28761693421538453
sS'136910'
p552
F0.19654155971794873
sS'23568910'
p553
F0.24711874432820519
sS'1234589'
p554
F0.29562160697179485
sS'123910'
p555
F0.20397618624102562
sS'2345610'
p556
F0.29514594468974359
sS'23479'
p557
F0.29514594468974359
sS'23478'
p558
F0.29069387253333334
sS'134810'
p559
F0.28734595480769226
sS'9'
F0.1697407692307692
sS'13689'
p560
F0.19654155971794873
sS'47'
p561
F0.20189692307692308
sS'1346'
p562
F0.26716155971794869
sS'245678910'
p563
F0.29514594468974359
sS'1347'
p564
F0.277817990848718
sS'6710'
p565
F0.23399437421538466
sS'126789'
p566
F0.24695312455897425
sS'235678910'
p567
F0.24711874432820519
sS'256910'
p568
F0.24711874432820519
sS'12367810'
p569
F0.24695312455897425
sS'23689'
p570
F0.204328985497436
sS'3468910'
p571
F0.28201234380769236
sS'3568'
p572
F0.23399437421538466
sS'3569'
p573
F0.22446615384615382
sS'1568910'
p574
F0.23932926726666662
sS'12458910'
p575
F0.29562160697179485
sS'12357'
p576
F0.20438130843076921
sS'379'
p577
F0.22446615384615382
sS'378'
p578
F0.12416524601025639
sS'12567910'
p579
F0.24695312455897425
sS'125910'
p580
F0.24695312455897425
sS'1234510'
p581
F0.29562160697179485
sS'5610'
p582
F0.23399437421538466
sS'1278'
p583
F0.20438130843076921
sS'356910'
p584
F0.23399437421538466
sS'179'
p585
F0.16277514946153845
sS'1247810'
p586
F0.29562160697179485
sS'1279'
p587
F0.24695312455897425
sS'1234678910'
p588
F0.29562160697179485
sS'2345710'
p589
F0.29069387253333334
sS'12710'
p590
F0.20438130843076921
sS'89'
p591
F0.31023948717948735
sS'123459'
p592
F0.29562160697179485
sS'123458'
p593
F0.29562160697179485
sS'3567810'
p594
F0.23399437421538466
sS'1489'
p595
F0.28734595480769226
sS'123456'
p596
F0.29562160697179485
sS'14610'
p597
F0.28734595480769226
sS'1710'
p598
F0.19694668190769232
sS'2410'
p599
F0.14770360088205126
sS'6789'
p600
F0.23399437421538466
sS'124689'
p601
F0.29562160697179485
sS'13610'
p602
F0.19654155971794873
sS'25610'
p603
F0.24711874432820519
sS'2578910'
p604
F0.24711874432820519
sS'7'
F0.04741235897435897
sS'23478910'
p605
F0.29514594468974359
sS'123478910'
p606
F0.29562160697179485
sS'125789'
p607
F0.24695312455897425
sS'1345810'
p608
F0.28734595480769226
sS'5689'
p609
F0.23399437421538466
sS'12510'
p610
F0.20438130843076921
sS'2367810'
p611
F0.24711874432820519
sS'36910'
p612
F0.19120666666666664
sS'46710'
p613
F0.28201234380769236
sS'13678'
p614
F0.23932926726666662
sS'124610'
p615
F0.29562160697179485
sS'589'
p616
F0.23399437421538466
sS'24568'
p617
F0.29514594468974359
sS'123678'
p618
F0.24695312455897425
sS'247'
p619
F0.29069387253333334
sS'246'
p620
F0.29514594468974359
sS'234689'
p621
F0.29514594468974359
sS'346910'
p622
F0.28201234380769236
sS'249'
p623
F0.29514594468974359
sS'248'
p624
F0.14770360088205126
sS'16710'
p625
F0.23932926726666662
sS'1467910'
p626
F0.28734595480769226
sS'245810'
p627
F0.29069387253333334
sS'237910'
p628
F0.24711874432820519
sS'235679'
p629
F0.24711874432820519
sS'235678'
p630
F0.24711874432820519
sS'2578'
p631
F0.12827592381538472
sS'2579'
p632
F0.24711874432820519
sS'2467910'
p633
F0.29514594468974359
sS'125678910'
p634
F0.24695312455897425
sS'128910'
p635
F0.32439798111282048
sS'14689'
p636
F0.28734595480769226
sS'2378'
p637
F0.12827592381538472
sS'2379'
p638
F0.24711874432820519
sS'510'
p639
F0.12416524601025639
sS'1310'
p640
F0.15415897435897435
sS'47810'
p641
F0.27784796395897443
sS'156910'
p642
F0.23932926726666662
sS'1235679'
p643
F0.24695312455897425
sS'458910'
p644
F0.28201234380769236
sS'1348'
p645
F0.28734595480769226
sS'459'
p646
F0.20632079010512827
sS'2459'
p647
F0.29514594468974359
sS'134678'
p648
F0.28734595480769226
sS'127810'
p649
F0.20438130843076921
sS'27910'
p650
F0.24711874432820519
sS'3456789'
p651
F0.28201234380769236
sS'235910'
p652
F0.24711874432820519
sS'2456'
p653
F0.29514594468974359
sS'1345'
p654
F0.277817990848718
sS'456'
p655
F0.20632079010512827
sS'457'
p656
F0.20189692307692308
sS'56910'
p657
F0.23399437421538466
sS'24568910'
p658
F0.29514594468974359
sS'46789'
p659
F0.28201234380769236
sS'135689'
p660
F0.23932926726666662
sS'178'
p661
F0.19694668190769232
sS'256710'
p662
F0.24711874432820519
sS'2456789'
p663
F0.29514594468974359
sS'48910'
p664
F0.28201234380769236
sS'2478910'
p665
F0.29514594468974359
sS'123458910'
p666
F0.29562160697179485
sS'1235678'
p667
F0.24695312455897425
sS'1345678910'
p668
F0.28734595480769226
sS'24510'
p669
F0.29069387253333334
sS'124710'
p670
F0.29562160697179485
sS'245678'
p671
F0.29514594468974359
sS'245679'
p672
F0.29514594468974359
sS'23610'
p673
F0.204328985497436
sS'257810'
p674
F0.12827592381538472
sS'45679'
p675
F0.20632079010512827
sS'34589'
p676
F0.28201234380769236
sS'148910'
p677
F0.28734595480769226
sS'13458910'
p678
F0.28734595480769226
sS'123478'
p679
F0.29562160697179485
sS'1345710'
p680
F0.28734595480769226
sS'2368910'
p681
F0.204328985497436
sS'45710'
p682
F0.27784796395897443
sS'1235810'
p683
F0.20438130843076921
sS'1367'
p684
F0.22980104689743591
sS'12345678'
p685
F0.29562160697179485
sS'12345679'
p686
F0.29562160697179485
sS'34567'
p687
F0.27248335420769232
sS'1910'
p688
F0.31557155971794865
sS'34569'
p689
F0.27248335420769232
sS'34568'
p690
F0.28201234380769236
sS'2567810'
p691
F0.24711874432820519
sS'13578'
p692
F0.19694668190769232
sS'12346810'
p693
F0.29562160697179485
sS'12578'
p694
F0.20438130843076921
sS'189'
p695
F0.31557155971794865
sS'15'
p696
F0.12037333333333333
sS'14'
p697
F0.12118128205128204
sS'17'
p698
F0.12037333333333333
sS'16'
p699
F0.16626181612820515
sS'45789'
p700
F0.28201234380769236
sS'18'
p701
F0.2796505128205129
sS'12479'
p702
F0.29562160697179485
sS'12478'
p703
F0.29562160697179485
sS'256810'
p704
F0.24711874432820519
sS'5710'
p705
F0.12416524601025639
sS'12349'
p706
F0.29562160697179485
sS'12348'
p707
F0.29562160697179485
sS'18910'
p708
F0.31557155971794865
sS'12567810'
p709
F0.24695312455897425
sS'246789'
p710
F0.29514594468974359
sS'134578'
p711
F0.28734595480769226
sS'12579'
p712
F0.24695312455897425
sS'12345'
p713
F0.29562160697179485
sS'145810'
p714
F0.28734595480769226
sS'12347'
p715
F0.29562160697179485
sS'4578910'
p716
F0.28201234380769236
sS'123410'
p717
F0.29562160697179485
sS'1247910'
p718
F0.29562160697179485
sS'6810'
p719
F0.31023948717948735
sS'147810'
p720
F0.28734595480769226
sS'345910'
p721
F0.28201234380769236
sS'16810'
p722
F0.31557155971794865
sS'12568910'
p723
F0.24695312455897425
sS'389'
p724
F0.19120666666666664
sS'12610'
p725
F0.32439798111282048
sS'356'
p726
F0.22446615384615382
sS'13710'
p727
F0.19694668190769232
sS'347810'
p728
F0.27784796395897443
sS'1610'
p729
F0.31557155971794865
sS'1234810'
p730
F0.29562160697179485
sS'168910'
p731
F0.31557155971794865
sS'123679'
p732
F0.24695312455897425
sS'1346810'
p733
F0.28734595480769226
sS'12478910'
p734
F0.29562160697179485
sS'24567810'
p735
F0.29514594468974359
sS'156710'
p736
F0.23932926726666662
sS'1245678910'
p737
F0.29562160697179485
sS'45678'
p738
F0.28201234380769236
sS'15678'
p739
F0.23932926726666662
sS'15679'
p740
F0.16277514946153845
sS'679'
p741
F0.1582935897435897
sS'267'
p742
F0.24711874432820519
sS'2356789'
p743
F0.24711874432820519
sS'27810'
p744
F0.12827592381538472
sS'1236810'
p745
F0.20397618624102562
sS'26810'
p746
F0.32330898549743581
sS'78'
p747
F0.12416524601025639
sS'2468910'
p748
F0.29514594468974359
sS'2357910'
p749
F0.24711874432820519
sS'1245710'
p750
F0.29562160697179485
sS'4710'
p751
F0.27784796395897443
sS'57810'
p752
F0.12416524601025639
sS'12689'
p753
F0.32439798111282048
sS'2358910'
p754
F0.24711874432820519
sS'24678'
p755
F0.29514594468974359
sS'2356710'
p756
F0.24711874432820519
sS'1689'
p757
F0.31557155971794865
sS'137910'
p758
F0.23932926726666662
sS'124567910'
p759
F0.29562160697179485
sS'378910'
p760
F0.23399437421538466
sS'1268'
p761
F0.32439798111282048
sS'3710'
p762
F0.12416524601025639
sS'7810'
p763
F0.12416524601025639
sS'1789'
p764
F0.23932926726666662
sS'23510'
p765
F0.12827592381538472
sS'12489'
p766
F0.29562160697179485
sS'1267'
p767
F0.24695312455897425
sS'3479'
p768
F0.27248335420769232
sS'1458'
p769
F0.28734595480769226
sS'134689'
p770
F0.28734595480769226
sS'146910'
p771
F0.28734595480769226
sS'12358910'
p772
F0.24695312455897425
sS'14578'
p773
F0.28734595480769226
sS'14579'
p774
F0.21076696520769234
sS'56810'
p775
F0.23399437421538466
sS'15689'
p776
F0.23932926726666662
sS'13568'
p777
F0.23932926726666662
sS'4678'
p778
F0.28201234380769236
sS'1268910'
p779
F0.32439798111282048
sS'13567'
p780
F0.22980104689743591
sS'1258910'
p781
F0.24695312455897425
sS'234567910'
p782
F0.29514594468974359
sS'1236710'
p783
F0.24695312455897425
sS'234568'
p784
F0.29514594468974359
sS'234569'
p785
F0.29514594468974359
sS'1469'
p786
F0.16550130330769228
sS'2367910'
p787
F0.24711874432820519
sS'578910'
p788
F0.23399437421538466
sS'8'
F0.12938410256410257
sS'1467'
p789
F0.21076696520769234
sS'257910'
p790
F0.24711874432820519
sS'234567'
p791
F0.29514594468974359
sS'356710'
p792
F0.23399437421538466
sS'2467'
p793
F0.29514594468974359
sS'368'
p794
F0.19120666666666664
sS'10'
p795
F0.12938410256410257
sS'124579'
p796
F0.29562160697179485
sS'124578'
p797
F0.29562160697179485
sS'1567910'
p798
F0.23932926726666662
sS'13'
p799
F0.03717476923076924
sS'124569'
p800
F0.29562160697179485
sS'125689'
p801
F0.24695312455897425
sS'6910'
p802
F0.31023948717948735
sS'23568'
p803
F0.24711874432820519
sS'126'
p804
F0.28952438023076921
sS'127'
p805
F0.20438130843076921
sS'128'
p806
F0.28829411370256403
sS'2'
F0.09083025641025641
sS'23567'
p807
F0.24711874432820519
sS'2567910'
p808
F0.24711874432820519
sS'24789'
p809
F0.29514594468974359
sS'12389'
p810
F0.20397618624102562
sS'23457810'
p811
F0.29069387253333334
sS'1237910'
p812
F0.24695312455897425
sS'1234610'
p813
F0.29562160697179485
sS'19'
p814
F0.16626181612820515
sS'25810'
p815
F0.12827592381538472
sS'410'
p816
F0.1405958974358974
sS'1389'
p817
F0.19654155971794873
sS'145910'
p818
F0.28734595480769226
sS'1236789'
p819
F0.24695312455897425
sS'125679'
p820
F0.24695312455897425
sS'125678'
p821
F0.24695312455897425
sS'145679'
p822
F0.21076696520769234
sS'145678'
p823
F0.28734595480769226
sS'269'
p824
F0.28860923076923084
sS'3410'
p825
F0.27516589743589748
sS'123467810'
p826
F0.29562160697179485
sS'13468910'
p827
F0.28734595480769226
sS'23469'
p828
F0.29514594468974359
sS'310'
p829
F0.076369846153846135
sS'123510'
p830
F0.20438130843076921
sS'12356'
p831
F0.24695312455897425
sS'12356710'
p832
F0.24695312455897425
sS'126810'
p833
F0.32439798111282048
sS'1245910'
p834
F0.29562160697179485
sS'369'
p835
F0.08549948717948716
sS'1245689'
p836
F0.29562160697179485
sS'268'
p837
F0.32330898549743581
sS'34578910'
p838
F0.28201234380769236
sS'3579'
p839
F0.22446615384615382
sS'3578'
p840
F0.12416524601025639
sS'1459'
p841
F0.21076696520769234
sS'347910'
p842
F0.28201234380769236
sS'24679'
p843
F0.29514594468974359
sS'3478'
p844
F0.27784796395897443
sS'12356910'
p845
F0.24695312455897425
sS'235610'
p846
F0.24711874432820519
sS'123579'
p847
F0.24695312455897425
sS'3'
F0.10161394871794874
sS'2356810'
p848
F0.24711874432820519
sS'12356789'
p849
F0.24695312455897425
sS'12310'
p850
F0.16140437011282055
sS'45610'
p851
F0.28201234380769236
sS'146789'
p852
F0.28734595480769226
sS'1346910'
p853
F0.28734595480769226
sS'1234910'
p854
F0.29562160697179485
sS'23456810'
p855
F0.29514594468974359
sS'24567910'
p856
F0.29514594468974359
sS'25910'
p857
F0.24711874432820519
sS'346710'
p858
F0.28201234380769236
sS'12910'
p859
F0.32439798111282048
sS'134910'
p860
F0.28734595480769226
sS'23678910'
p861
F0.24711874432820519
sS'67910'
p862
F0.23399437421538466
sS'124678910'
p863
F0.29562160697179485
sS'246810'
p864
F0.29514594468974359
sS'45910'
p865
F0.28201234380769236
sS'123469'
p866
F0.29562160697179485
sS'34910'
p867
F0.28201234380769236
sS'23410'
p868
F0.28761693421538453
sS'367'
p869
F0.22446615384615382
sS'123589'
p870
F0.24695312455897425
sS'3568910'
p871
F0.23399437421538466
sS'13467910'
p872
F0.28734595480769226
sS'123467'
p873
F0.29562160697179485
sS'123468'
p874
F0.29562160697179485
sS'57910'
p875
F0.23399437421538466
sS'137810'
p876
F0.19694668190769232
sS'234678910'
p877
F0.29514594468974359
sS'136810'
p878
F0.19654155971794873
sS'23789'
p879
F0.24711874432820519
sS'789'
p880
F0.23399437421538466
sS'2357810'
p881
F0.12827592381538472
sS'36789'
p882
F0.23399437421538466
sS'456910'
p883
F0.28201234380769236
sS'2345678'
p884
F0.29514594468974359
sS'12346'
p885
F0.29562160697179485
sS'1245610'
p886
F0.29562160697179485
sS'5678910'
p887
F0.23399437421538466
sS'3610'
p888
F0.19120666666666664
sS'348910'
p889
F0.28201234380769236
sS'579'
p890
F0.1582935897435897
sS'578'
p891
F0.12416524601025639
sS'1267810'
p892
F0.24695312455897425
sS'124567810'
p893
F0.29562160697179485
sS'136789'
p894
F0.23932926726666662
sS'3457810'
p895
F0.27784796395897443
sS'178910'
p896
F0.23932926726666662
sS'146810'
p897
F0.28734595480769226
sS'258'
p898
F0.12827592381538472
sS'259'
p899
F0.24711874432820519
sS'67810'
p900
F0.23399437421538466
sS'68'
p901
F0.31023948717948735
sS'69'
p902
F0.1697407692307692
sS'25789'
p903
F0.24711874432820519
sS'256'
p904
F0.24711874432820519
sS'257'
p905
F0.12827592381538472
sS'2569'
p906
F0.24711874432820519
sS'2568'
p907
F0.24711874432820519
sS'26910'
p908
F0.32330898549743581
sS'346810'
p909
F0.28201234380769236
sS'25678910'
p910
F0.24711874432820519
sS'2567'
p911
F0.24711874432820519
sS'367810'
p912
F0.23399437421538466
sS'2369'
p913
F0.16194435897435899
sS'2368'
p914
F0.204328985497436
sS'2367'
p915
F0.24711874432820519
sS'23457910'
p916
F0.29514594468974359
sS'258910'
p917
F0.24711874432820519
sS'136710'
p918
F0.23932926726666662
sS'4'
F0.13140205128205129
sS'1210'
p919
F0.28829411370256403
sS'1358'
p920
F0.19694668190769232
sS'469'
p921
F0.16133666666666666
sS'468'
p922
F0.28201234380769236
sS'13678910'
p923
F0.23932926726666662
sS'1567810'
p924
F0.23932926726666662
sS'467'
p925
F0.20632079010512827
sS'1357'
p926
F0.18741846153846153
sS'1356'
p927
F0.22980104689743591
sS'2589'
p928
F0.24711874432820519
sS'234678'
p929
F0.29514594468974359
sS'4810'
p930
F0.1405958974358974
sS'168'
p931
F0.31557155971794865
sS'169'
p932
F0.16626181612820515
sS'234679'
p933
F0.29514594468974359
sS'1457910'
p934
F0.28734595480769226
sS'234568910'
p935
F0.29514594468974359
sS'167'
p936
F0.16277514946153845
sS'234789'
p937
F0.29514594468974359
sS'3689'
p938
F0.19120666666666664
sS'123567810'
p939
F0.24695312455897425
sS'13459'
p940
F0.277817990848718
sS'13456'
p941
F0.277817990848718
sS'13457'
p942
F0.277817990848718
sS'1456789'
p943
F0.28734595480769226
sS'4689'
p944
F0.28201234380769236
sS'1456'
p945
F0.21076696520769234
sS'1457'
p946
F0.21076696520769234
sS'24810'
p947
F0.14770360088205126
sS'13567810'
p948
F0.23932926726666662
sS'2348910'
p949
F0.29514594468974359
sS'23468910'
p950
F0.29514594468974359
sS'12357810'
p951
F0.20438130843076921
sS'12345689'
p952
F0.29562160697179485
sS'1510'
p953
F0.19694668190769232
sS'1257910'
p954
F0.24695312455897425
sS'23569'
p955
F0.24711874432820519
sS'346789'
p956
F0.28201234380769236
sS'3467810'
p957
F0.28201234380769236
sS'1234710'
p958
F0.29562160697179485
sS'127910'
p959
F0.24695312455897425
sS'34679'
p960
F0.27248335420769232
sS'34678'
p961
F0.28201234380769236
sS'147910'
p962
F0.28734595480769226
sS'234589'
p963
F0.29514594468974359
sS'1256789'
p964
F0.24695312455897425
sS'1347810'
p965
F0.28734595480769226
sS'678'
p966
F0.23399437421538466
sS'34578'
p967
F0.27784796395897443
sS'135789'
p968
F0.23932926726666662
sS'12356810'
p969
F0.24695312455897425
sS'1234567'
p970
F0.29562160697179485
sS'12468'
p971
F0.29562160697179485
sS'12469'
p972
F0.29562160697179485
sS'145789'
p973
F0.28734595480769226
sS'12467'
p974
F0.29562160697179485
sS'278910'
p975
F0.24711874432820519
sS'345789'
p976
F0.28201234380769236
sS'2356910'
p977
F0.24711874432820519
sS'12358'
p978
F0.20438130843076921
sS'12359'
p979
F0.24695312455897425
sS'134567'
p980
F0.277817990848718
sS'34567910'
p981
F0.28201234380769236
sS'134569'
p982
F0.277817990848718
sS'134568'
p983
F0.28734595480769226
sS'35810'
p984
F0.12416524601025639
sS'126910'
p985
F0.32439798111282048
sS'1235710'
p986
F0.20438130843076921
sS'34689'
p987
F0.28201234380769236
sS'234710'
p988
F0.29069387253333334
sS'25679'
p989
F0.24711874432820519
sS'25678'
p990
F0.24711874432820519
sS'23456910'
p991
F0.29514594468974359
sS'3910'
p992
F0.19120666666666664
sS'245610'
p993
F0.29514594468974359
sS'13467810'
p994
F0.28734595480769226
sS'23458'
p995
F0.29069387253333334
sS'13468'
p996
F0.28734595480769226
sS'1235910'
p997
F0.24695312455897425
sS'267810'
p998
F0.24711874432820519
sS'134678910'
p999
F0.28734595480769226
sS'45810'
p1000
F0.27784796395897443
sS'23457'
p1001
F0.29069387253333334
sS'23456'
p1002
F0.29514594468974359
sS'2457810'
p1003
F0.29069387253333334
sS'134578910'
p1004
F0.28734595480769226
sS'468910'
p1005
F0.28201234380769236
sS'1358910'
p1006
F0.23932926726666662
sS'1368910'
p1007
F0.19654155971794873
sS'2346710'
p1008
F0.29514594468974359
sS'357'
p1009
F0.11463789743589742
sS'12346789'
p1010
F0.29562160697179485
sS'456810'
p1011
F0.28201234380769236
sS'134789'
p1012
F0.28734595480769226
sS'13589'
p1013
F0.23932926726666662
sS'568'
p1014
F0.23399437421538466
sS'4567'
p1015
F0.20632079010512827
sS'345679'
p1016
F0.27248335420769232
sS'345678'
p1017
F0.28201234380769236
sS'15678910'
p1018
F0.23932926726666662
sS'359'
p1019
F0.22446615384615382
sS'358'
p1020
F0.12416524601025639
sS'123689'
p1021
F0.20397618624102562
sS'23458910'
p1022
F0.29514594468974359
sS'210'
p1023
F0.13483103677948721
sS'12346910'
p1024
F0.29562160697179485
sS'1356789'
p1025
F0.23932926726666662
sS'26789'
p1026
F0.24711874432820519
sS'167810'
p1027
F0.23932926726666662
sS'134679'
p1028
F0.277817990848718
sS'1234568910'
p1029
F0.29562160697179485
sS'678910'
p1030
F0.23399437421538466
sS'2345689'
p1031
F0.29514594468974359
sS'2456810'
p1032
F0.29514594468974359
sS'1478910'
p1033
F0.28734595480769226
sS'4568'
p1034
F0.28201234380769236
sS'12679'
p1035
F0.24695312455897425
sS'12678'
p1036
F0.24695312455897425
sS'1236910'
p1037
F0.20397618624102562
sS'367910'
p1038
F0.23399437421538466
sS'23489'
p1039
F0.29514594468974359
sS'23910'
p1040
F0.204328985497436
sS'23567910'
p1041
F0.24711874432820519
sS'289'
p1042
F0.32330898549743581
sS'1678'
p1043
F0.23932926726666662
sS'1679'
p1044
F0.16277514946153845
sS'158910'
p1045
F0.23932926726666662
sS'123610'
p1046
F0.20397618624102562
sS'145710'
p1047
F0.28734595480769226
sS'3489'
p1048
F0.28201234380769236
sS'1238910'
p1049
F0.20397618624102562
sS'24589'
p1050
F0.29514594468974359
sS'457910'
p1051
F0.28201234380769236
sS'1457810'
p1052
F0.28734595480769226
sS'235789'
p1053
F0.24711874432820519
sS'345810'
p1054
F0.27784796395897443
sS'123456910'
p1055
F0.29562160697179485
sS'1456810'
p1056
F0.28734595480769226
sS'13410'
p1057
F0.28734595480769226
sS'14589'
p1058
F0.28734595480769226
sS'1235789'
p1059
F0.24695312455897425
sS'2458910'
p1060
F0.29514594468974359
sS'13456910'
p1061
F0.28734595480769226
sS'4569'
p1062
F0.20632079010512827
sS'123567910'
p1063
F0.24695312455897425
sS'14678910'
p1064
F0.28734595480769226
sS'34510'
p1065
F0.27784796395897443
sS'3567'
p1066
F0.22446615384615382
sS'1256810'
p1067
F0.24695312455897425
sS'2456910'
p1068
F0.29514594468974359
sS'135679'
p1069
F0.22980104689743591
sS'59'
p1070
F0.1582935897435897
sS'58'
p1071
F0.12416524601025639
sS'456789'
p1072
F0.28201234380769236
sS'1356710'
p1073
F0.23932926726666662
sS'57'
p1074
F0.04741235897435897
sS'56'
p1075
F0.1582935897435897
sS'16910'
p1076
F0.31557155971794865
sS'234579'
p1077
F0.29514594468974359
sS'234578'
p1078
F0.29069387253333334
sS'12789'
p1079
F0.24695312455897425
sS'24910'
p1080
F0.29514594468974359
sS'1356910'
p1081
F0.23932926726666662
sS'467910'
p1082
F0.28201234380769236
sS'13810'
p1083
F0.15415897435897435
sS'1410'
p1084
F0.28734595480769226
sS'13569'
p1085
F0.22980104689743591
sS'1257810'
p1086
F0.20438130843076921
sS'123578910'
p1087
F0.24695312455897425
sS'13567910'
p1088
F0.23932926726666662
sS'12357910'
p1089
F0.24695312455897425
sS'3468'
p1090
F0.28201234380769236
sS'12457910'
p1091
F0.29562160697179485
sS'134510'
p1092
F0.28734595480769226
sS'23678'
p1093
F0.24711874432820519
sS'3578910'
p1094
F0.23399437421538466
sS'67'
p1095
F0.1582935897435897
sS'126710'
p1096
F0.24695312455897425
sS'2479'
p1097
F0.29514594468974359
sS'2478'
p1098
F0.29069387253333334
sS'12589'
p1099
F0.24695312455897425
sS'12368910'
p1100
F0.20397618624102562
sS'110'
p1101
F0.2796505128205129
sS'23578'
p1102
F0.12827592381538472
sS'23579'
p1103
F0.24711874432820519
sS'12378910'
p1104
F0.24695312455897425
sS'236789'
p1105
F0.24711874432820519
sS'1456710'
p1106
F0.28734595480769226
sS'14510'
p1107
F0.28734595480769226
sS'245710'
p1108
F0.29069387253333334
sS'345678910'
p1109
F0.28201234380769236
sS'1678910'
p1110
F0.23932926726666662
sS'34567810'
p1111
F0.28201234380769236
sS'16789'
p1112
F0.23932926726666662
sS'2345910'
p1113
F0.29514594468974359
sS'1256'
p1114
F0.24695312455897425
sS'1257'
p1115
F0.20438130843076921
sS'34568910'
p1116
F0.28201234380769236
sS'124578910'
p1117
F0.29562160697179485
sS'1235610'
p1118
F0.24695312455897425
sS'234610'
p1119
F0.29514594468974359
sS'910'
p1120
F0.31023948717948735
sS'1258'
p1121
F0.20438130843076921
sS'1259'
p1122
F0.24695312455897425
sS'3567910'
p1123
F0.23399437421538466
sS'1569'
p1124
F0.16277514946153845
sS'3810'
p1125
F0.076369846153846135
sS'1345689'
p1126
F0.28734595480769226
sS'1357810'
p1127
F0.19694668190769232
sS'248910'
p1128
F0.29514594468974359
sS'1246710'
p1129
F0.29562160697179485
sS'234567810'
p1130
F0.29514594468974359
sS'14578910'
p1131
F0.28734595480769226
sS'12467910'
p1132
F0.29562160697179485
sS'124589'
p1133
F0.29562160697179485
sS'13478910'
p1134
F0.28734595480769226
sS'235710'
p1135
F0.12827592381538472
sS'1589'
p1136
F0.23932926726666662
sS'124510'
p1137
F0.29562160697179485
sS'134589'
p1138
F0.28734595480769226
sS'238910'
p1139
F0.204328985497436
sS'1578910'
p1140
F0.23932926726666662
sS'23467810'
p1141
F0.29514594468974359
sS'1468910'
p1142
F0.28734595480769226
sS'46810'
p1143
F0.28201234380769236
sS'3467910'
p1144
F0.28201234380769236
sS'135910'
p1145
F0.23932926726666662
sS'3467'
p1146
F0.27248335420769232
sS'12457'
p1147
F0.29562160697179485
sS'12456'
p1148
F0.29562160697179485
sS'24689'
p1149
F0.29514594468974359
sS'2378910'
p1150
F0.24711874432820519
sS'1234579'
p1151
F0.29562160697179485
sS'1234578'
p1152
F0.29562160697179485
sS'12459'
p1153
F0.29562160697179485
sS'256789'
p1154
F0.24711874432820519
sS'3469'
p1155
F0.26189974358974361
sS'2457910'
p1156
F0.29514594468974359
sS'123456710'
p1157
F0.29562160697179485
sS'1234678'
p1158
F0.29562160697179485
sS'1234679'
p1159
F0.29562160697179485
sS'35689'
p1160
F0.23399437421538466
sS'2679'
p1161
F0.24711874432820519
sS'236710'
p1162
F0.24711874432820519
sS'23467'
p1163
F0.29514594468974359
sS'2467810'
p1164
F0.29514594468974359
sS'3510'
p1165
F0.12416524601025639
sS'1234567810'
p1166
F0.29562160697179485
sS'123479'
p1167
F0.29562160697179485
sS'3458910'
p1168
F0.28201234380769236
sS'167910'
p1169
F0.23932926726666662
sS'1235678910'
p1170
F0.24695312455897425
sS'1345679'
p1171
F0.277817990848718
sS'123578'
p1172
F0.20438130843076921
sS'1456910'
p1173
F0.28734595480769226
sS'23468'
p1174
F0.29514594468974359
sS'1345678'
p1175
F0.28734595480769226
sS'24678910'
p1176
F0.29514594468974359
sS'23567810'
p1177
F0.24711874432820519
sS'13679'
p1178
F0.22980104689743591
sS'12347810'
p1179
F0.29562160697179485
sS'123457810'
p1180
F0.29562160697179485
sS'1347910'
p1181
F0.28734595480769226
sS'23810'
p1182
F0.08020667780512819
sS'23578910'
p1183
F0.24711874432820519
sS'12347910'
p1184
F0.29562160697179485
sS'13456710'
p1185
F0.28734595480769226
sS'2568910'
p1186
F0.24711874432820519
sS'23679'
p1187
F0.24711874432820519
sS'79'
p1188
F0.1582935897435897
sS'24610'
p1189
F0.29514594468974359
sS'13457810'
p1190
F0.28734595480769226
sS'5789'
p1191
F0.23399437421538466
sS'1367910'
p1192
F0.23932926726666662
sS'37810'
p1193
F0.12416524601025639
sS'569'
p1194
F0.1582935897435897
sS'34678910'
p1195
F0.28201234380769236
sS'2810'
p1196
F0.13483103677948721
sS'2456710'
p1197
F0.29514594468974359
sS'3678910'
p1198
F0.23399437421538466
sS'4567810'
p1199
F0.28201234380769236
sS'123456810'
p1200
F0.29562160697179485
sS'567'
p1201
F0.1582935897435897
sS'138910'
p1202
F0.19654155971794873
sS'17810'
p1203
F0.19694668190769232
sS'23459'
p1204
F0.29514594468974359
sS'12346710'
p1205
F0.29562160697179485
sS'123710'
p1206
F0.20438130843076921
sS'13456810'
p1207
F0.28734595480769226
sS'13510'
p1208
F0.19694668190769232
sS'2345679'
p1209
F0.29514594468974359
sS'123489'
p1210
F0.29562160697179485
sS'234578910'
p1211
F0.29514594468974359
sS'2347910'
p1212
F0.29514594468974359
sS'1256910'
p1213
F0.24695312455897425
sS'2358'
p1214
F0.12827592381538472
sS'2359'
p1215
F0.24711874432820519
sS'12410'
p1216
F0.29562160697179485
sS'2356'
p1217
F0.24711874432820519
sS'2357'
p1218
F0.12827592381538472
sS'467810'
p1219
F0.28201234380769236
sS'1356810'
p1220
F0.23932926726666662
sS'245689'
p1221
F0.29514594468974359
sS'3456910'
p1222
F0.28201234380769236
sS'3789'
p1223
F0.23399437421538466
sS'357910'
p1224
F0.23399437421538466
sS'157'
p1225
F0.12037333333333333
sS'156'
p1226
F0.16277514946153845
sS'159'
p1227
F0.16277514946153845
sS'158'
p1228
F0.19694668190769232
sS'13578910'
p1229
F0.23932926726666662
sS'12467810'
p1230
F0.29562160697179485
sS'4568910'
p1231
F0.28201234380769236
sS'123457'
p1232
F0.29562160697179485
sS'12348910'
p1233
F0.29562160697179485
sS'13910'
p1234
F0.19654155971794873
sS'156789'
p1235
F0.23932926726666662
sS'14789'
p1236
F0.28734595480769226
sS'1248910'
p1237
F0.29562160697179485
sS'49'
p1238
F0.16133666666666666
sS'36710'
p1239
F0.23399437421538466
sS'1346710'
p1240
F0.28734595480769226
sS'4510'
p1241
F0.27784796395897443
sS'45'
p1242
F0.20189692307692308
sS'13467'
p1243
F0.277817990848718
sS'1568'
p1244
F0.23932926726666662
sS'1458910'
p1245
F0.28734595480769226
sS'5'
F0.04741235897435897
sS'135678'
p1246
F0.23932926726666662
sS'135678910'
p1247
F0.23932926726666662
sS'1278910'
p1248
F0.24695312455897425
sS'1567'
p1249
F0.16277514946153845
sS'1357910'
p1250
F0.23932926726666662
sS'12456710'
p1251
F0.29562160697179485
sS'34789'
p1252
F0.28201234380769236
sS'145689'
p1253
F0.28734595480769226
sS'7910'
p1254
F0.23399437421538466
sS'13789'
p1255
F0.23932926726666662
sS'123467910'
p1256
F0.29562160697179485
sS'35710'
p1257
F0.12416524601025639
sS'2345789'
p1258
F0.29514594468974359
sS'134579'
p1259
F0.277817990848718
sS'123789'
p1260
F0.24695312455897425
sS'25689'
p1261
F0.24711874432820519
sS'489'
p1262
F0.28201234380769236
sS'12345710'
p1263
F0.29562160697179485
sS'46910'
p1264
F0.28201234380769236
sS'135810'
p1265
F0.19694668190769232
sS'23467910'
p1266
F0.29514594468974359
sS'478'
p1267
F0.27784796395897443
sS'23589'
p1268
F0.24711874432820519
sS'12367'
p1269
F0.24695312455897425
sS'368910'
p1270
F0.19120666666666664
sS'1345610'
p1271
F0.28734595480769226
sS'2345678910'
p1272
F0.29514594468974359
sS'35910'
p1273
F0.23399437421538466
sS'1245810'
p1274
F0.29562160697179485
sS'12345910'
p1275
F0.29562160697179485
sS'12369'
p1276
F0.16139925202564101
sS'12368'
p1277
F0.20397618624102562
sS'1246789'
p1278
F0.29562160697179485
sS'3457910'
p1279
F0.28201234380769236
sS'4589'
p1280
F0.28201234380769236
sS'12345789'
p1281
F0.29562160697179485
sS'1346789'
p1282
F0.28734595480769226
sS'123468910'
p1283
F0.29562160697179485
sS'12457810'
p1284
F0.29562160697179485
sS'12'
p1285
F0.25342051282051276
sS'1368'
p1286
F0.19654155971794873
sS'36810'
p1287
F0.19120666666666664
ssI8
(dp1288
S'1235'
p1289
F0.22954595484615375
sS'1345'
p1290
F0.18892925797435897
sS'135'
p1291
F0.18892925797435897
sS'134'
p1292
F0.18892925797435897
sS'234'
p1293
F0.25610515841025638
sS'235'
p1294
F0.25610515841025638
sS'2345'
p1295
F0.25610515841025638
sS'25'
p1296
F0.21345025641025642
sS'23'
p1297
F0.28291641025641012
sS'45'
p1298
F0.21412205128205131
sS'1'
F0.14849000000000001
sS'345'
p1299
F0.2158797435897436
sS'3'
F0.018577948717948715
sS'2'
F0.025780220512820511
sS'5'
F0.21412205128205131
sS'4'
F0.21412205128205131
sS'1234'
p1300
F0.22954595484615375
sS'24'
p1301
F0.21345025641025642
sS'145'
p1302
F0.1867264374615385
sS'245'
p1303
F0.21345025641025642
sS'123'
p1304
F0.22954595484615375
sS'124'
p1305
F0.18657977079487179
sS'125'
p1306
F0.18657977079487179
sS'13'
p1307
F0.15185999999999999
sS'12'
p1308
F0.14730410256410259
sS'15'
p1309
F0.1867264374615385
sS'14'
p1310
F0.1867264374615385
sS'35'
p1311
F0.2158797435897436
sS'34'
p1312
F0.2158797435897436
sS'1245'
p1313
F0.18657977079487179
sS'12345'
p1314
F0.22954595484615375
ssI9
(dp1315
S'124567'
p1316
F0.1680601581282051
sS'1267'
p1317
F0.15087310684615382
sS'137'
p1318
F0.15368849146153851
sS'136'
p1319
F0.15368849146153851
sS'135'
p1320
F0.16632051282051277
sS'134'
p1321
F0.12701648717948721
sS'24'
p1322
F0.032970794871794863
sS'25'
p1323
F0.036186128205128204
sS'26'
p1324
F0.18286487179487176
sS'27'
p1325
F0.18286487179487176
sS'23'
p1326
F0.016967774358974362
sS'13567'
p1327
F0.17408951710256407
sS'45'
p1328
F0.049527974358974353
sS'345'
p1329
F0.22717717948717953
sS'346'
p1330
F0.17033733333333337
sS'347'
p1331
F0.17033733333333337
sS'4'
F0.023456158974358973
sS'1467'
p1332
F0.14800964530769234
sS'234567'
p1333
F0.23886080171794866
sS'2467'
p1334
F0.18148633333333331
sS'123'
p1335
F0.12218461538461538
sS'4567'
p1336
F0.18026435897435897
sS'1346'
p1337
F0.15789226069230769
sS'126'
p1338
F0.15087310684615382
sS'127'
p1339
F0.15087310684615382
sS'23567'
p1340
F0.20790333333333338
sS'1347'
p1341
F0.15789226069230769
sS'3567'
p1342
F0.18635307692307695
sS'57'
p1343
F0.18301435897435903
sS'56'
p1344
F0.18301435897435903
sS'23467'
p1345
F0.19188312820512821
sS'123457'
p1346
F0.20534029317948727
sS'123456'
p1347
F0.20534029317948727
sS'1256'
p1348
F0.17075672223076918
sS'1257'
p1349
F0.17075672223076918
sS'3'
F0.013619041025641026
sS'7'
F0.16150487179487175
sS'367'
p1350
F0.16459487179487176
sS'1234'
p1351
F0.12075889743589743
sS'1235'
p1352
F0.15041428205128202
sS'1236'
p1353
F0.15368849146153851
sS'1237'
p1354
F0.15368849146153851
sS'245'
p1355
F0.056650564102564097
sS'247'
p1356
F0.18148633333333331
sS'246'
p1357
F0.18148633333333331
sS'123467'
p1358
F0.15789226069230769
sS'3467'
p1359
F0.17033733333333337
sS'12457'
p1360
F0.1680601581282051
sS'12456'
p1361
F0.1680601581282051
sS'2356'
p1362
F0.20790333333333338
sS'37'
p1363
F0.16459487179487176
sS'36'
p1364
F0.16459487179487176
sS'35'
p1365
F0.042674297435897429
sS'34'
p1366
F0.1644051794871795
sS'1245'
p1367
F0.13894146153846149
sS'1247'
p1368
F0.14800964530769234
sS'1246'
p1369
F0.14800964530769234
sS'2457'
p1370
F0.20181564102564101
sS'2456'
p1371
F0.20181564102564101
sS'1345'
p1372
F0.20534029317948727
sS'456'
p1373
F0.18026435897435897
sS'457'
p1374
F0.18026435897435897
sS'12567'
p1375
F0.17075672223076918
sS'67'
p1376
F0.16150487179487175
sS'256'
p1377
F0.20452282051282056
sS'257'
p1378
F0.20452282051282056
sS'3456'
p1379
F0.21731003248717945
sS'3457'
p1380
F0.21731003248717945
sS'1234567'
p1381
F0.20534029317948727
sS'2567'
p1382
F0.20452282051282056
sS'2'
F0.0097249743589743597
sS'6'
F0.16150487179487175
sS'2367'
p1383
F0.18593333333333339
sS'24567'
p1384
F0.20181564102564101
sS'267'
p1385
F0.18286487179487176
sS'467'
p1386
F0.16018805128205127
sS'1357'
p1387
F0.17408951710256407
sS'1356'
p1388
F0.17408951710256407
sS'567'
p1389
F0.18301435897435903
sS'34567'
p1390
F0.21731003248717945
sS'123567'
p1391
F0.17408951710256407
sS'167'
p1392
F0.15087310684615382
sS'13'
p1393
F0.13889384615384609
sS'12'
p1394
F0.11880820512820513
sS'15'
p1395
F0.16009451282051279
sS'14'
p1396
F0.13011676923076917
sS'17'
p1397
F0.15087310684615382
sS'16'
p1398
F0.15087310684615382
sS'13456'
p1399
F0.20534029317948727
sS'13457'
p1400
F0.20534029317948727
sS'1456'
p1401
F0.1680601581282051
sS'1457'
p1402
F0.1680601581282051
sS'12345'
p1403
F0.20534029317948727
sS'2357'
p1404
F0.20790333333333338
sS'12347'
p1405
F0.15789226069230769
sS'12346'
p1406
F0.15789226069230769
sS'157'
p1407
F0.17075672223076918
sS'156'
p1408
F0.17075672223076918
sS'234'
p1409
F0.18897507692307697
sS'235'
p1410
F0.052594871794871802
sS'236'
p1411
F0.18593333333333339
sS'237'
p1412
F0.18593333333333339
sS'2345'
p1413
F0.27035076923076923
sS'2347'
p1414
F0.19188312820512821
sS'2346'
p1415
F0.19188312820512821
sS'1367'
p1416
F0.15368849146153851
sS'46'
p1417
F0.16018805128205127
sS'47'
p1418
F0.16018805128205127
sS'12467'
p1419
F0.14800964530769234
sS'13467'
p1420
F0.15789226069230769
sS'1'
F0.13574769230769232
sS'5'
F0.033198538461538467
sS'134567'
p1421
F0.20534029317948727
sS'12356'
p1422
F0.17408951710256407
sS'12357'
p1423
F0.17408951710256407
sS'1567'
p1424
F0.17075672223076918
sS'146'
p1425
F0.14800964530769234
sS'147'
p1426
F0.14800964530769234
sS'145'
p1427
F0.1545529743589743
sS'14567'
p1428
F0.1680601581282051
sS'23457'
p1429
F0.23886080171794866
sS'23456'
p1430
F0.23886080171794866
sS'12367'
p1431
F0.15368849146153851
sS'357'
p1432
F0.18635307692307695
sS'356'
p1433
F0.18635307692307695
sS'124'
p1434
F0.11508489743589743
sS'125'
p1435
F0.14286638461538462
ssI10
(dp1436
S'1'
F0.085643589743589751
sS'2'
F0.087931487179487178
sS'12'
p1437
F0.13542669761538456
ssI11
(dp1438
S'24'
p1439
F0.11132153846153847
sS'1234'
p1440
F0.12750961992307694
sS'13'
p1441
F0.096515743589743616
sS'12'
p1442
F0.095128564102564123
sS'14'
p1443
F0.082583487179487158
sS'23'
p1444
F0.053648564102564106
sS'34'
p1445
F0.092269487179487145
sS'1'
F0.096447384615384629
sS'3'
F0.014862061538461535
sS'2'
F0.012491615384615382
sS'124'
p1446
F0.088008102564102547
sS'4'
F0.085643589743589751
sS'134'
p1447
F0.087955333333333344
sS'234'
p1448
F0.12750961992307694
sS'123'
p1449
F0.10156820512820511
ssI12
(dp1450
S'13'
p1451
F0.22045743589743588
sS'12'
p1452
F0.21827794871794876
sS'23'
p1453
F0.24659669576923071
sS'1'
F0.22517205128205126
sS'3'
F0.014862061538461535
sS'2'
F0.023456158974358973
sS'123'
p1454
F0.24659669576923071
ssI13
(dp1455
S'14679'
p1456
F0.071252898461538469
sS'14678'
p1457
F0.071252898461538469
sS'16789'
p1458
F0.061763872820512829
sS'12456789'
p1459
F0.41705030813589744
sS'4789'
p1460
F0.071252898461538469
sS'35789'
p1461
F0.37499438564102561
sS'345'
p1462
F0.29173589743589745
sS'346'
p1463
F0.28293410256410245
sS'347'
p1464
F0.28293410256410245
sS'345689'
p1465
F0.34707928249487174
sS'123456789'
p1466
F0.38812008067435899
sS'348'
p1467
F0.28509153846153845
sS'349'
p1468
F0.28509153846153845
sS'4578'
p1469
F0.12061841069999997
sS'3678'
p1470
F0.087658652307692278
sS'3679'
p1471
F0.087658652307692278
sS'24579'
p1472
F0.41705030813589744
sS'14579'
p1473
F0.12061841069999997
sS'278'
p1474
F0.089182954871794839
sS'279'
p1475
F0.089182954871794839
sS'46'
p1476
F0.035437307692307685
sS'124678'
p1477
F0.37222592410256428
sS'124679'
p1478
F0.37222592410256428
sS'2389'
p1479
F0.13277926587179481
sS'1234'
p1480
F0.25646051282051296
sS'1235'
p1481
F0.47315333333333354
sS'1236'
p1482
F0.08880462382051281
sS'1237'
p1483
F0.08880462382051281
sS'3589'
p1484
F0.35722487179487183
sS'1238'
p1485
F0.13277926587179481
sS'1239'
p1486
F0.13277926587179481
sS'235689'
p1487
F0.41603492741025644
sS'5678'
p1488
F0.073136283076923048
sS'5679'
p1489
F0.073136283076923048
sS'245'
p1490
F0.32662128205128205
sS'39'
p1491
F0.046607225641025644
sS'38'
p1492
F0.046607225641025644
sS'4679'
p1493
F0.071252898461538469
sS'24569'
p1494
F0.41705030813589744
sS'1458'
p1495
F0.074411204546153867
sS'4678'
p1496
F0.071252898461538469
sS'37'
p1497
F0.032761594871794877
sS'36'
p1498
F0.032761594871794877
sS'35'
p1499
F0.85272871794871807
sS'34'
p1500
F0.28291641025641012
sS'1245'
p1501
F0.47315333333333354
sS'1247'
p1502
F0.32867641025641042
sS'1246'
p1503
F0.32867641025641042
sS'1249'
p1504
F0.40088410256410267
sS'1248'
p1505
F0.40088410256410267
sS'23489'
p1506
F0.3432954402307693
sS'23456789'
p1507
F0.38812008067435899
sS'1235789'
p1508
F0.41603492741025644
sS'12569'
p1509
F0.44556464205128193
sS'12568'
p1510
F0.44556464205128193
sS'3456'
p1511
F0.34707928249487174
sS'3457'
p1512
F0.34707928249487174
sS'145689'
p1513
F0.12061841069999997
sS'1234568'
p1514
F0.38812008067435899
sS'1234569'
p1515
F0.38812008067435899
sS'3458'
p1516
F0.32930976864871797
sS'3459'
p1517
F0.32930976864871797
sS'12567'
p1518
F0.47451948717948722
sS'356789'
p1519
F0.37499438564102561
sS'2689'
p1520
F0.089182954871794839
sS'6'
F0.0011134866666666662
sS'14789'
p1521
F0.071252898461538469
sS'13456789'
p1522
F0.34707928249487174
sS'1345789'
p1523
F0.34707928249487174
sS'123569'
p1524
F0.41603492741025644
sS'123568'
p1525
F0.41603492741025644
sS'123567'
p1526
F0.44469182382051275
sS'35678'
p1527
F0.37499438564102561
sS'35679'
p1528
F0.37499438564102561
sS'1234789'
p1529
F0.3432954402307693
sS'1234689'
p1530
F0.3432954402307693
sS'1245678'
p1531
F0.41705030813589744
sS'1245679'
p1532
F0.41705030813589744
sS'12458'
p1533
F0.44570720454615376
sS'238'
p1534
F0.13277926587179481
sS'239'
p1535
F0.13277926587179481
sS'2459'
p1536
F0.32919053787948716
sS'15789'
p1537
F0.073136283076923048
sS'234'
p1538
F0.28224230769230768
sS'235'
p1539
F0.32662128205128205
sS'236'
p1540
F0.077696500743589747
sS'237'
p1541
F0.077696500743589747
sS'2345'
p1542
F0.38812008067435899
sS'2347'
p1543
F0.32323079817948713
sS'2346'
p1544
F0.32323079817948713
sS'56789'
p1545
F0.073136283076923048
sS'2349'
p1546
F0.3432954402307693
sS'2348'
p1547
F0.3432954402307693
sS'1'
F0.015469717948717949
sS'34579'
p1548
F0.34707928249487174
sS'146'
p1549
F0.02443851282051282
sS'147'
p1550
F0.02443851282051282
sS'145'
p1551
F0.02814707692307692
sS'125789'
p1552
F0.44556464205128193
sS'148'
p1553
F0.025071333333333334
sS'149'
p1554
F0.025071333333333334
sS'14567'
p1555
F0.12061841069999997
sS'13478'
p1556
F0.30215182153846143
sS'13479'
p1557
F0.30215182153846143
sS'14569'
p1558
F0.12061841069999997
sS'14568'
p1559
F0.12061841069999997
sS'13579'
p1560
F0.37499438564102561
sS'13578'
p1561
F0.37499438564102561
sS'1289'
p1562
F0.046073953846153863
sS'2469'
p1563
F0.37222592410256428
sS'1579'
p1564
F0.073136283076923048
sS'125689'
p1565
F0.44556464205128193
sS'689'
p1566
F0.061763872820512829
sS'124789'
p1567
F0.37222592410256428
sS'23569'
p1568
F0.41603492741025644
sS'1478'
p1569
F0.071252898461538469
sS'1479'
p1570
F0.071252898461538469
sS'125'
p1571
F0.47451948717948722
sS'458'
p1572
F0.071467589161538406
sS'124567'
p1573
F0.41705030813589744
sS'2346789'
p1574
F0.3432954402307693
sS'459'
p1575
F0.071467589161538406
sS'245789'
p1576
F0.41705030813589744
sS'124568'
p1577
F0.41705030813589744
sS'124569'
p1578
F0.41705030813589744
sS'137'
p1579
F0.043725035897435899
sS'136'
p1580
F0.043725035897435899
sS'135'
p1581
F0.94209025641025623
sS'134'
p1582
F0.26025538461538456
sS'1245789'
p1583
F0.41705030813589744
sS'139'
p1584
F0.04384401025641025
sS'138'
p1585
F0.04384401025641025
sS'2458'
p1586
F0.32919053787948716
sS'24'
p1587
F0.96403358974358988
sS'25'
p1588
F0.32768307692307685
sS'26'
p1589
F0.033350994871794874
sS'27'
p1590
F0.033350994871794874
sS'23'
p1591
F0.031810035897435883
sS'12378'
p1592
F0.13277926587179481
sS'12379'
p1593
F0.13277926587179481
sS'28'
p1594
F0.033043461538461549
sS'29'
p1595
F0.033043461538461549
sS'13489'
p1596
F0.26194820512820505
sS'1379'
p1597
F0.087658652307692278
sS'1378'
p1598
F0.087658652307692278
sS'1234589'
p1599
F0.38812008067435899
sS'23479'
p1600
F0.3432954402307693
sS'23478'
p1601
F0.3432954402307693
sS'9'
F0.0017212046153846146
sS'13689'
p1602
F0.087658652307692278
sS'1346'
p1603
F0.25853615384615375
sS'457'
p1604
F0.12061841069999997
sS'126789'
p1605
F0.089182954871794839
sS'3567'
p1606
F0.28712487179487173
sS'3568'
p1607
F0.37499438564102561
sS'3569'
p1608
F0.37499438564102561
sS'12357'
p1609
F0.44469182382051275
sS'379'
p1610
F0.087658652307692278
sS'378'
p1611
F0.087658652307692278
sS'1278'
p1612
F0.089182954871794839
sS'135689'
p1613
F0.37499438564102561
sS'1279'
p1614
F0.089182954871794839
sS'89'
p1615
F0.0017212046153846146
sS'123459'
p1616
F0.38812008067435899
sS'123458'
p1617
F0.38812008067435899
sS'1489'
p1618
F0.025071333333333334
sS'123456'
p1619
F0.38812008067435899
sS'6789'
p1620
F0.061763872820512829
sS'2456789'
p1621
F0.41705030813589744
sS'7'
F0.0011134866666666662
sS'589'
p1622
F0.022942358974358971
sS'24568'
p1623
F0.41705030813589744
sS'123678'
p1624
F0.13277926587179481
sS'247'
p1625
F0.352161282051282
sS'246'
p1626
F0.352161282051282
sS'234689'
p1627
F0.3432954402307693
sS'249'
p1628
F0.28434692307692311
sS'248'
p1629
F0.28434692307692311
sS'24567'
p1630
F0.41705030813589744
sS'235679'
p1631
F0.41603492741025644
sS'235678'
p1632
F0.41603492741025644
sS'2578'
p1633
F0.44556464205128193
sS'2579'
p1634
F0.44556464205128193
sS'14689'
p1635
F0.071252898461538469
sS'2378'
p1636
F0.13277926587179481
sS'2379'
p1637
F0.13277926587179481
sS'1348'
p1638
F0.26194820512820505
sS'1349'
p1639
F0.26194820512820505
sS'134679'
p1640
F0.30215182153846143
sS'134678'
p1641
F0.30215182153846143
sS'3456789'
p1642
F0.34707928249487174
sS'2457'
p1643
F0.41705030813589744
sS'2456'
p1644
F0.41705030813589744
sS'1345'
p1645
F0.26709410256410254
sS'456'
p1646
F0.12061841069999997
sS'1347'
p1647
F0.25853615384615375
sS'46789'
p1648
F0.071252898461538469
sS'179'
p1649
F0.061763872820512829
sS'178'
p1650
F0.061763872820512829
sS'124689'
p1651
F0.37222592410256428
sS'1235679'
p1652
F0.41603492741025644
sS'1235678'
p1653
F0.41603492741025644
sS'245678'
p1654
F0.41705030813589744
sS'245679'
p1655
F0.41705030813589744
sS'2'
F0.033198538461538467
sS'34589'
p1656
F0.32930976864871797
sS'189'
p1657
F0.015180923076923074
sS'1367'
p1658
F0.043725035897435899
sS'12345678'
p1659
F0.38812008067435899
sS'12345679'
p1660
F0.38812008067435899
sS'34567'
p1661
F0.34707928249487174
sS'34569'
p1662
F0.34707928249487174
sS'34568'
p1663
F0.34707928249487174
sS'13'
p1664
F0.029906471794871797
sS'12579'
p1665
F0.44556464205128193
sS'15'
p1666
F0.026915333333333329
sS'14'
p1667
F0.017672948717948722
sS'17'
p1668
F0.01572433333333333
sS'16'
p1669
F0.01572433333333333
sS'45789'
p1670
F0.12061841069999997
sS'18'
p1671
F0.015180923076923074
sS'12479'
p1672
F0.37222592410256428
sS'12478'
p1673
F0.37222592410256428
sS'12349'
p1674
F0.3432954402307693
sS'12348'
p1675
F0.3432954402307693
sS'246789'
p1676
F0.37222592410256428
sS'134578'
p1677
F0.34707928249487174
sS'134579'
p1678
F0.34707928249487174
sS'12345'
p1679
F0.38812008067435899
sS'36789'
p1680
F0.087658652307692278
sS'12346'
p1681
F0.2997459263846155
sS'24578'
p1682
F0.41705030813589744
sS'1578'
p1683
F0.073136283076923048
sS'123679'
p1684
F0.13277926587179481
sS'15678'
p1685
F0.073136283076923048
sS'15679'
p1686
F0.073136283076923048
sS'2356789'
p1687
F0.41603492741025644
sS'79'
p1688
F0.061763872820512829
sS'78'
p1689
F0.061763872820512829
sS'12689'
p1690
F0.089182954871794839
sS'1689'
p1691
F0.061763872820512829
sS'1269'
p1692
F0.089182954871794839
sS'1268'
p1693
F0.089182954871794839
sS'1789'
p1694
F0.061763872820512829
sS'12489'
p1695
F0.40088410256410267
sS'1267'
p1696
F0.04528549230769232
sS'14578'
p1697
F0.12061841069999997
sS'4579'
p1698
F0.12061841069999997
sS'15689'
p1699
F0.073136283076923048
sS'13568'
p1700
F0.37499438564102561
sS'2489'
p1701
F0.28434692307692311
sS'13567'
p1702
F0.40365358974358978
sS'234568'
p1703
F0.38812008067435899
sS'234569'
p1704
F0.38812008067435899
sS'1469'
p1705
F0.071252898461538469
sS'1468'
p1706
F0.071252898461538469
sS'8'
F0.0017212046153846146
sS'1467'
p1707
F0.02443851282051282
sS'234567'
p1708
F0.38812008067435899
sS'2467'
p1709
F0.352161282051282
sS'124579'
p1710
F0.41705030813589744
sS'124578'
p1711
F0.41705030813589744
sS'2468'
p1712
F0.37222592410256428
sS'12578'
p1713
F0.44556464205128193
sS'12'
p1714
F0.045451389743589747
sS'124'
p1715
F1.0087076923076923
sS'23568'
p1716
F0.41603492741025644
sS'126'
p1717
F0.04528549230769232
sS'127'
p1718
F0.04528549230769232
sS'128'
p1719
F0.046073953846153863
sS'129'
p1720
F0.046073953846153863
sS'23567'
p1721
F0.32817515715384615
sS'24789'
p1722
F0.37222592410256428
sS'12389'
p1723
F0.13277926587179481
sS'19'
p1724
F0.015180923076923074
sS'1389'
p1725
F0.04384401025641025
sS'1236789'
p1726
F0.13277926587179481
sS'125679'
p1727
F0.44556464205128193
sS'125678'
p1728
F0.44556464205128193
sS'145679'
p1729
F0.12061841069999997
sS'145678'
p1730
F0.12061841069999997
sS'23467'
p1731
F0.32323079817948713
sS'23468'
p1732
F0.3432954402307693
sS'23469'
p1733
F0.3432954402307693
sS'146789'
p1734
F0.071252898461538469
sS'1245689'
p1735
F0.41705030813589744
sS'3579'
p1736
F0.37499438564102561
sS'3578'
p1737
F0.37499438564102561
sS'24678'
p1738
F0.37222592410256428
sS'24679'
p1739
F0.37222592410256428
sS'3478'
p1740
F0.30215182153846143
sS'3479'
p1741
F0.30215182153846143
sS'3'
F0.025780220512820511
sS'5689'
p1742
F0.073136283076923048
sS'12356789'
p1743
F0.41603492741025644
sS'368'
p1744
F0.087658652307692278
sS'369'
p1745
F0.087658652307692278
sS'367'
p1746
F0.032761594871794877
sS'123468'
p1747
F0.3432954402307693
sS'123469'
p1748
F0.3432954402307693
sS'2345678'
p1749
F0.38812008067435899
sS'2345679'
p1750
F0.38812008067435899
sS'389'
p1751
F0.046607225641025644
sS'123589'
p1752
F0.41603492741025644
sS'123467'
p1753
F0.2997459263846155
sS'23789'
p1754
F0.13277926587179481
sS'789'
p1755
F0.061763872820512829
sS'12347'
p1756
F0.2997459263846155
sS'24589'
p1757
F0.32919053787948716
sS'579'
p1758
F0.073136283076923048
sS'578'
p1759
F0.073136283076923048
sS'136789'
p1760
F0.087658652307692278
sS'258'
p1761
F0.32862769230769234
sS'259'
p1762
F0.32862769230769234
sS'67'
p1763
F0.0011134866666666662
sS'68'
p1764
F0.061763872820512829
sS'69'
p1765
F0.061763872820512829
sS'25789'
p1766
F0.44556464205128193
sS'256'
p1767
F0.32862769230769234
sS'257'
p1768
F0.32862769230769234
sS'2569'
p1769
F0.44556464205128193
sS'2568'
p1770
F0.44556464205128193
sS'1589'
p1771
F0.026969589743589747
sS'2567'
p1772
F0.32862769230769234
sS'1345678'
p1773
F0.34707928249487174
sS'2369'
p1774
F0.13277926587179481
sS'2368'
p1775
F0.13277926587179481
sS'2367'
p1776
F0.077696500743589747
sS'4'
F0.018577948717948715
sS'1359'
p1777
F0.33488128205128198
sS'1358'
p1778
F0.33488128205128198
sS'469'
p1779
F0.071252898461538469
sS'468'
p1780
F0.071252898461538469
sS'45689'
p1781
F0.12061841069999997
sS'467'
p1782
F0.035437307692307685
sS'1357'
p1783
F0.40365358974358978
sS'1356'
p1784
F0.40365358974358978
sS'2589'
p1785
F0.32862769230769234
sS'4567'
p1786
F0.12061841069999997
sS'234678'
p1787
F0.3432954402307693
sS'168'
p1788
F0.061763872820512829
sS'169'
p1789
F0.061763872820512829
sS'234679'
p1790
F0.3432954402307693
sS'167'
p1791
F0.01572433333333333
sS'234789'
p1792
F0.3432954402307693
sS'3689'
p1793
F0.087658652307692278
sS'13458'
p1794
F0.30696617890512823
sS'13459'
p1795
F0.30696617890512823
sS'13456'
p1796
F0.34707928249487174
sS'13457'
p1797
F0.34707928249487174
sS'1456789'
p1798
F0.12061841069999997
sS'4689'
p1799
F0.071252898461538469
sS'1456'
p1800
F0.12061841069999997
sS'1457'
p1801
F0.12061841069999997
sS'12345689'
p1802
F0.38812008067435899
sS'1459'
p1803
F0.074411204546153867
sS'346789'
p1804
F0.30215182153846143
sS'34679'
p1805
F0.30215182153846143
sS'34678'
p1806
F0.30215182153846143
sS'1256789'
p1807
F0.44556464205128193
sS'34578'
p1808
F0.34707928249487174
sS'135789'
p1809
F0.37499438564102561
sS'1234567'
p1810
F0.38812008067435899
sS'12468'
p1811
F0.37222592410256428
sS'12469'
p1812
F0.37222592410256428
sS'145789'
p1813
F0.12061841069999997
sS'12467'
p1814
F0.32867641025641042
sS'345789'
p1815
F0.34707928249487174
sS'12358'
p1816
F0.41603492741025644
sS'12359'
p1817
F0.41603492741025644
sS'134567'
p1818
F0.34707928249487174
sS'134569'
p1819
F0.34707928249487174
sS'134568'
p1820
F0.34707928249487174
sS'12356'
p1821
F0.44469182382051275
sS'34689'
p1822
F0.30215182153846143
sS'25679'
p1823
F0.44556464205128193
sS'25678'
p1824
F0.44556464205128193
sS'13469'
p1825
F0.30215182153846143
sS'23459'
p1826
F0.38812008067435899
sS'23458'
p1827
F0.38812008067435899
sS'23457'
p1828
F0.38812008067435899
sS'23456'
p1829
F0.38812008067435899
sS'357'
p1830
F0.28712487179487173
sS'356'
p1831
F0.28712487179487173
sS'134789'
p1832
F0.30215182153846143
sS'13589'
p1833
F0.33488128205128198
sS'14589'
p1834
F0.074411204546153867
sS'345679'
p1835
F0.34707928249487174
sS'345678'
p1836
F0.34707928249487174
sS'359'
p1837
F0.35722487179487183
sS'358'
p1838
F0.35722487179487183
sS'123689'
p1839
F0.13277926587179481
sS'1356789'
p1840
F0.37499438564102561
sS'26789'
p1841
F0.089182954871794839
sS'2345689'
p1842
F0.38812008067435899
sS'4569'
p1843
F0.12061841069999997
sS'268'
p1844
F0.089182954871794839
sS'12679'
p1845
F0.089182954871794839
sS'12678'
p1846
F0.089182954871794839
sS'289'
p1847
F0.033043461538461549
sS'1678'
p1848
F0.061763872820512829
sS'1679'
p1849
F0.061763872820512829
sS'3489'
p1850
F0.28509153846153845
sS'234589'
p1851
F0.38812008067435899
sS'678'
p1852
F0.061763872820512829
sS'679'
p1853
F0.061763872820512829
sS'235789'
p1854
F0.41603492741025644
sS'267'
p1855
F0.033350994871794874
sS'269'
p1856
F0.089182954871794839
sS'4568'
p1857
F0.12061841069999997
sS'23689'
p1858
F0.13277926587179481
sS'59'
p1859
F0.022942358974358971
sS'58'
p1860
F0.022942358974358971
sS'456789'
p1861
F0.12061841069999997
sS'57'
p1862
F0.020094179487179484
sS'56'
p1863
F0.020094179487179484
sS'134689'
p1864
F0.30215182153846143
sS'234578'
p1865
F0.38812008067435899
sS'12789'
p1866
F0.089182954871794839
sS'13569'
p1867
F0.37499438564102561
sS'124589'
p1868
F0.44570720454615376
sS'23679'
p1869
F0.13277926587179481
sS'23678'
p1870
F0.13277926587179481
sS'2479'
p1871
F0.37222592410256428
sS'2478'
p1872
F0.37222592410256428
sS'12589'
p1873
F0.47451948717948722
sS'234579'
p1874
F0.38812008067435899
sS'23578'
p1875
F0.41603492741025644
sS'23579'
p1876
F0.41603492741025644
sS'236789'
p1877
F0.13277926587179481
sS'2789'
p1878
F0.089182954871794839
sS'1256'
p1879
F0.47451948717948722
sS'1257'
p1880
F0.47451948717948722
sS'1258'
p1881
F0.47451948717948722
sS'1259'
p1882
F0.47451948717948722
sS'1345689'
p1883
F0.34707928249487174
sS'45679'
p1884
F0.12061841069999997
sS'45678'
p1885
F0.12061841069999997
sS'134589'
p1886
F0.30696617890512823
sS'3467'
p1887
F0.28293410256410245
sS'12457'
p1888
F0.41705030813589744
sS'12456'
p1889
F0.41705030813589744
sS'24689'
p1890
F0.37222592410256428
sS'1234579'
p1891
F0.38812008067435899
sS'1234578'
p1892
F0.38812008067435899
sS'12459'
p1893
F0.44570720454615376
sS'256789'
p1894
F0.44556464205128193
sS'3469'
p1895
F0.30215182153846143
sS'3468'
p1896
F0.30215182153846143
sS'1234678'
p1897
F0.3432954402307693
sS'1234679'
p1898
F0.3432954402307693
sS'35689'
p1899
F0.37499438564102561
sS'2679'
p1900
F0.089182954871794839
sS'2678'
p1901
F0.089182954871794839
sS'123479'
p1902
F0.3432954402307693
sS'123478'
p1903
F0.3432954402307693
sS'1345679'
p1904
F0.34707928249487174
sS'123578'
p1905
F0.41603492741025644
sS'123579'
p1906
F0.41603492741025644
sS'13678'
p1907
F0.087658652307692278
sS'13679'
p1908
F0.087658652307692278
sS'1235689'
p1909
F0.41603492741025644
sS'5789'
p1910
F0.073136283076923048
sS'568'
p1911
F0.073136283076923048
sS'569'
p1912
F0.073136283076923048
sS'2345789'
p1913
F0.38812008067435899
sS'567'
p1914
F0.020094179487179484
sS'123489'
p1915
F0.3432954402307693
sS'2358'
p1916
F0.41603492741025644
sS'2359'
p1917
F0.41603492741025644
sS'2356'
p1918
F0.32817515715384615
sS'2357'
p1919
F0.32817515715384615
sS'245689'
p1920
F0.41705030813589744
sS'157'
p1921
F0.027879589743589742
sS'156'
p1922
F0.027879589743589742
sS'159'
p1923
F0.026969589743589747
sS'158'
p1924
F0.026969589743589747
sS'123457'
p1925
F0.38812008067435899
sS'123'
p1926
F0.044723312820512819
sS'13468'
p1927
F0.30215182153846143
sS'156789'
p1928
F0.073136283076923048
sS'48'
p1929
F0.021807384615384617
sS'49'
p1930
F0.021807384615384617
sS'12346789'
p1931
F0.3432954402307693
sS'47'
p1932
F0.035437307692307685
sS'45'
p1933
F0.026260307692307701
sS'13467'
p1934
F0.25853615384615375
sS'1568'
p1935
F0.073136283076923048
sS'1569'
p1936
F0.073136283076923048
sS'5'
F0.019694999999999997
sS'135678'
p1937
F0.37499438564102561
sS'135679'
p1938
F0.37499438564102561
sS'1567'
p1939
F0.027879589743589742
sS'34789'
p1940
F0.30215182153846143
sS'13789'
p1941
F0.087658652307692278
sS'123789'
p1942
F0.13277926587179481
sS'25689'
p1943
F0.44556464205128193
sS'489'
p1944
F0.021807384615384617
sS'23589'
p1945
F0.41603492741025644
sS'12367'
p1946
F0.08880462382051281
sS'3789'
p1947
F0.087658652307692278
sS'12369'
p1948
F0.13277926587179481
sS'12368'
p1949
F0.13277926587179481
sS'1246789'
p1950
F0.37222592410256428
sS'4589'
p1951
F0.071467589161538406
sS'12345789'
p1952
F0.38812008067435899
sS'1346789'
p1953
F0.30215182153846143
sS'478'
p1954
F0.071252898461538469
sS'479'
p1955
F0.071252898461538469
sS'1368'
p1956
F0.087658652307692278
sS'1369'
p1957
F0.087658652307692278
ssI14
(dp1958
S'13'
p1959
F0.023220312820512817
sS'12'
p1960
F0.024586292307692301
sS'23'
p1961
F0.042238794871794869
sS'1'
F0.014669397435897433
sS'3'
F0.012491615384615382
sS'2'
F0.013619041025641026
sS'123'
p1962
F0.10920315620512824
ssI15
(dp1963
S'24'
p1964
F0.047081333333333336
sS'1234'
p1965
F0.11389992607692309
sS'13'
p1966
F0.079847384615384626
sS'12'
p1967
F0.079580820512820505
sS'14'
p1968
F0.079509128205128218
sS'23'
p1969
F0.03284126666666666
sS'34'
p1970
F0.05082358974358972
sS'1'
F0.080778153846153861
sS'3'
F0.014669397435897433
sS'2'
F0.022790866666666656
sS'124'
p1971
F0.077376307692307689
sS'4'
F0.011774066666666668
sS'134'
p1972
F0.078306564102564091
sS'234'
p1973
F0.11389992607692309
sS'123'
p1974
F0.0806431794871795
ssI16
(dp1975
S'24'
p1976
F0.17149502564102564
sS'1234'
p1977
F0.14892751297435899
sS'13'
p1978
F0.10440989743589744
sS'12'
p1979
F0.10228569230769233
sS'14'
p1980
F0.10795846153846153
sS'23'
p1981
F0.11927210256410258
sS'34'
p1982
F0.022692774358974363
sS'1'
F0.10728974358974358
sS'3'
F0.022790866666666656
sS'2'
F0.10792984615384614
sS'124'
p1983
F0.10210358974358974
sS'4'
F0.012848207692307694
sS'134'
p1984
F0.11183974358974355
sS'234'
p1985
F0.14892751297435899
sS'123'
p1986
F0.10501779487179488
ssI17
(dp1987
S'1'
F0.019757538461538462
sS'2'
F0.017578282051282049
sS'12'
p1988
F0.080001394282051302
ssI18
(dp1989
S'13'
p1990
F0.019233164102564104
sS'12'
p1991
F0.021535974358974357
sS'23'
p1992
F0.06848358257948714
sS'1'
F0.019277051282051282
sS'3'
F0.02380117948717949
sS'2'
F0.012848207692307694
sS'123'
p1993
F0.06848358257948714
ssI19
(dp1994
S'1235'
p1995
F0.081070538461538472
sS'1345'
p1996
F0.062746615384615359
sS'135'
p1997
F0.085071794871794865
sS'134'
p1998
F0.078615538461538459
sS'234'
p1999
F0.066136794871794885
sS'235'
p2000
F0.064258615384615386
sS'2345'
p2001
F0.11909451602564104
sS'25'
p2002
F0.040823282051282057
sS'23'
p2003
F0.071111641025641006
sS'45'
p2004
F0.081101076923076915
sS'1'
F0.013570128205128205
sS'345'
p2005
F0.081568307692307718
sS'3'
F0.045653897435897435
sS'2'
F0.011656076923076922
sS'5'
F0.028485102564102562
sS'4'
F0.019221794871794869
sS'1234'
p2006
F0.082658230769230776
sS'24'
p2007
F0.030226871794871796
sS'145'
p2008
F0.057717743589743603
sS'245'
p2009
F0.091842256410256409
sS'123'
p2010
F0.087435666666666634
sS'124'
p2011
F0.033050410256410249
sS'125'
p2012
F0.044025128205128203
sS'13'
p2013
F0.067442871794871809
sS'12'
p2014
F0.01220993846153846
sS'15'
p2015
F0.030913025641025639
sS'14'
p2016
F0.020977758974358978
sS'35'
p2017
F0.064887230769230766
sS'34'
p2018
F0.057061692307692279
sS'1245'
p2019
F0.069881256410256415
sS'12345'
p2020
F0.11909451602564104
ssI20
(dp2021
S'13'
p2022
F0.045378769230769236
sS'12'
p2023
F0.057579179487179478
sS'23'
p2024
F0.11083012802564099
sS'1'
F0.023294512820512828
sS'3'
F0.046851641025641017
sS'2'
F0.019221794871794869
sS'123'
p2025
F0.11083012802564099
ssI21
(dp2026
S'13'
p2027
F0.064939641025641009
sS'12'
p2028
F0.063257384615384604
sS'23'
p2029
F0.11286515231025641
sS'1'
F0.036592307692307702
sS'3'
F0.035223179487179485
sS'2'
F0.018992258974358973
sS'123'
p2030
F0.11286515231025641
ssI22
(dp2031
S'13'
p2032
F0.038173333333333337
sS'12'
p2033
F0.043948051282051287
sS'23'
p2034
F0.088586280143589768
sS'1'
F0.037861794871794877
sS'3'
F0.045653897435897435
sS'2'
F0.015065148717948717
sS'123'
p2035
F0.088586280143589768
ssI23
(dp2036
S'13'
p2037
F0.03521305128205128
sS'12'
p2038
F0.037272666666666662
sS'23'
p2039
F0.032923871794871787
sS'1'
F0.018740358974358971
sS'3'
F0.015065148717948717
sS'2'
F0.02380117948717949
sS'123'
p2040
F0.083672665123076945
ssI24
(dp2041
S'146'
p2042
F0.07366635897435897
sS'12346'
p2043
F0.2127789743589743
sS'156'
p2044
F0.074439333333333302
sS'2456'
p2045
F0.32126179487179485
sS'1345'
p2046
F0.1032171025641026
sS'456'
p2047
F0.31672769230769238
sS'136'
p2048
F0.060762769230769217
sS'135'
p2049
F0.070767794871794881
sS'134'
p2050
F0.064350615384615367
sS'234'
p2051
F0.16848338461538465
sS'235'
p2052
F0.16742871794871797
sS'236'
p2053
F0.16762615384615384
sS'123456'
p2054
F0.25055899760512818
sS'256'
p2055
F0.13985794871794871
sS'2345'
p2056
F0.19172461538461541
sS'25'
p2057
F0.080502717948717939
sS'26'
p2058
F0.064940717948717946
sS'2346'
p2059
F0.17564800000000003
sS'3456'
p2060
F0.3624543589743589
sS'23'
p2061
F0.16757769230769232
sS'46'
p2062
F0.14604102564102564
sS'45'
p2063
F0.16916358974358978
sS'3'
F0.018740358974358971
sS'1'
F0.065589461538461541
sS'345'
p2064
F0.2044158974358975
sS'346'
p2065
F0.14313923076923077
sS'2'
F0.057609923076923066
sS'5'
F0.03911376923076923
sS'4'
F0.13140205128205129
sS'6'
F0.018992258974358973
sS'12356'
p2066
F0.21689205128205125
sS'1234'
p2067
F0.21465589743589736
sS'24'
p2068
F0.1451746153846154
sS'1236'
p2069
F0.21939128205128205
sS'145'
p2070
F0.079828410256410243
sS'1356'
p2071
F0.068916671794871764
sS'245'
p2072
F0.1831592307692308
sS'123'
p2073
F0.22039512820512813
sS'124'
p2074
F0.091692743589743608
sS'1346'
p2075
F0.077111025641025649
sS'126'
p2076
F0.093436717948717982
sS'1256'
p2077
F0.10437305128205124
sS'23456'
p2078
F0.25055899760512818
sS'13'
p2079
F0.06401276923076922
sS'12456'
p2080
F0.2028430769230769
sS'15'
p2081
F0.063496717948717932
sS'14'
p2082
F0.058484876923076953
sS'16'
p2083
F0.061905179487179482
sS'13456'
p2084
F0.20832512820512825
sS'2356'
p2085
F0.1715401538461539
sS'1235'
p2086
F0.21917179487179489
sS'56'
p2087
F0.12546743589743584
sS'36'
p2088
F0.032150512820512817
sS'35'
p2089
F0.063371333333333335
sS'34'
p2090
F0.13183112820512821
sS'356'
p2091
F0.12552333333333335
sS'1456'
p2092
F0.19816999999999999
sS'246'
p2093
F0.16053205128205128
sS'1245'
p2094
F0.10967153846153846
sS'1246'
p2095
F0.09856008717948718
sS'12'
p2096
F0.093006051282051264
sS'12345'
p2097
F0.21346461538461531
sS'125'
p2098
F0.099480307692307701
ssI25
(dp2099
S'13'
p2100
F0.096028307692307691
sS'12'
p2101
F0.099478564102564115
sS'23'
p2102
F0.14633305026153842
sS'1'
F0.038005076923076926
sS'3'
F0.11931712820512817
sS'2'
F0.03911376923076923
sS'123'
p2103
F0.14633305026153842
ssI26
(dp2104
S'13'
p2105
F0.044699692307692301
sS'12'
p2106
F0.045656256410256418
sS'23'
p2107
F0.089928898153846165
sS'1'
F0.051071179487179499
sS'3'
F0.057609923076923066
sS'2'
F0.014645676923076924
sS'123'
p2108
F0.089928898153846165
ssI27
(dp2109
S'13'
p2110
F0.032371333333333335
sS'12'
p2111
F0.035347999999999997
sS'23'
p2112
F0.035641923076923071
sS'1'
F0.011774066666666668
sS'3'
F0.014645676923076924
sS'2'
F0.019694999999999997
sS'123'
p2113
F0.083228104153846127
ss.