(dp1
I1
(dp2
I1
(lp3
S'Mach'
p4
aI39
aS'1 '
p5
asI2
(lp6
S'Load'
p7
aI39
aS'1 '
p8
asI3
(lp9
S'Line'
p10
aI1
aI39
aS'1 '
p11
asI4
(lp12
g10
aI9
aI39
aS'1 '
p13
assI2
(dp14
I1
(lp15
g4
aI30
aS'1 '
p16
asI2
(lp17
g10
aI1
aI2
aS'1 '
p18
asI3
(lp19
g10
aI2
aI3
aS'1 '
p20
asI4
(lp21
g10
aI2
aI25
aS'1 '
p22
asI5
(lp23
S'Tx'
p24
aI2
aI30
aS'1 '
p25
asI6
(lp26
g24
aI30
aI2
aS'1 '
p27
assI3
(dp28
I1
(lp29
g4
aI37
aS'1 '
p30
asI2
(lp31
g7
aI25
aS'1 '
p32
asI3
(lp33
g10
aI2
aI25
aS'1 '
p34
asI4
(lp35
g10
aI25
aI26
aS'1 '
p36
asI5
(lp37
g24
aI25
aI37
aS'1 '
p38
asI6
(lp39
g24
aI37
aI25
aS'1 '
p40
assI4
(dp41
I1
(lp42
g4
aI38
aS'1 '
p43
asI2
(lp44
g7
aI29
aS'1 '
p45
asI3
(lp46
g10
aI26
aI29
aS'1 '
p47
asI4
(lp48
g10
aI28
aI29
aS'1 '
p49
asI5
(lp50
g24
aI29
aI38
aS'1 '
p51
asI6
(lp52
g24
aI38
aI29
aS'1 '
p53
assI5
(dp54
I1
(lp55
g4
aI35
aS'1 '
p56
asI2
(lp57
g10
aI21
aI22
aS'1 '
p58
asI3
(lp59
g10
aI22
aI23
aS'1 '
p60
asI4
(lp61
g24
aI22
aI35
aS'1 '
p62
asI5
(lp63
g24
aI35
aI22
aS'1 '
p64
assI6
(dp65
I1
(lp66
g4
aI36
aS'1 '
p67
asI2
(lp68
g7
aI23
aS'1 '
p69
asI3
(lp70
g10
aI22
aI23
aS'1 '
p71
asI4
(lp72
g10
aI23
aI24
aS'1 '
p73
asI5
(lp74
g24
aI23
aI36
aS'1 '
p75
asI6
(lp76
g24
aI36
aI23
aS'1 '
p77
assI7
(dp78
I1
(lp79
g4
aI33
aS'1 '
p80
asI2
(lp81
g4
aI34
aS'1 '
p82
asI3
(lp83
g7
aI20
aS'1 '
p84
asI4
(lp85
g10
aI16
aI19
aS'1 '
p86
asI5
(lp87
g24
aI19
aI20
aS'1 '
p88
asI6
(lp89
g24
aI19
aI33
aS'1 '
p90
asI7
(lp91
g24
aI20
aI19
aS'1 '
p92
asI8
(lp93
g24
aI20
aI34
aS'1 '
p94
asI9
(lp95
g24
aI33
aI19
aS'1 '
p96
asI10
(lp97
g24
aI34
aI20
aS'1 '
p98
assI8
(dp99
I1
(lp100
g4
aI32
aS'1 '
p101
asI2
(lp102
g10
aI10
aI11
aS'1 '
p103
asI3
(lp104
g10
aI10
aI13
aS'1 '
p105
asI4
(lp106
g24
aI10
aI32
aS'1 '
p107
asI5
(lp108
g24
aI32
aI10
aS'1 '
p109
assI9
(dp110
I1
(lp111
g4
aI31
aS'1 '
p112
asI2
(lp113
g7
aI31
aS'1 '
p114
asI3
(lp115
g10
aI5
aI6
aS'1 '
p116
asI4
(lp117
g10
aI6
aI7
aS'1 '
p118
asI5
(lp119
g10
aI6
aI11
aS'1 '
p120
asI6
(lp121
g24
aI6
aI31
aS'1 '
p122
asI7
(lp123
g24
aI31
aI6
aS'1 '
p124
assI10
(dp125
I1
(lp126
g10
aI8
aI9
aS'1 '
p127
asI2
(lp128
g10
aI9
aI39
aS'1 '
p129
assI11
(dp130
I1
(lp131
g7
aI8
aS'1 '
p132
asI2
(lp133
g10
aI5
aI8
aS'1 '
p134
asI3
(lp135
g10
aI7
aI8
aS'1 '
p136
asI4
(lp137
g10
aI8
aI9
aS'1 '
p138
assI12
(dp139
I1
(lp140
g7
aI7
aS'1 '
p141
asI2
(lp142
g10
aI6
aI7
aS'1 '
p143
asI3
(lp144
g10
aI7
aI8
aS'1 '
p145
assI13
(dp146
I1
(lp147
g7
aI12
aS'1 '
p148
asI2
(lp149
g10
aI6
aI11
aS'1 '
p150
asI3
(lp151
g10
aI10
aI11
aS'1 '
p152
asI4
(lp153
g10
aI10
aI13
aS'1 '
p154
asI5
(lp155
g10
aI13
aI14
aS'1 '
p156
asI6
(lp157
g24
aI11
aI12
aS'1 '
p158
asI7
(lp159
g24
aI12
aI11
aS'1 '
p160
asI8
(lp161
g24
aI12
aI13
aS'1 '
p162
asI9
(lp163
g24
aI13
aI12
aS'1 '
p164
assI14
(dp165
I1
(lp166
g10
aI4
aI5
aS'1 '
p167
asI2
(lp168
g10
aI5
aI6
aS'1 '
p169
asI3
(lp170
g10
aI5
aI8
aS'1 '
p171
assI15
(dp172
I1
(lp173
g7
aI4
aS'1 '
p174
asI2
(lp175
g10
aI3
aI4
aS'1 '
p176
asI3
(lp177
g10
aI4
aI5
aS'1 '
p178
asI4
(lp179
g10
aI4
aI14
aS'1 '
p180
assI16
(dp181
I1
(lp182
g7
aI3
aS'1 '
p183
asI2
(lp184
g10
aI2
aI3
aS'1 '
p185
asI3
(lp186
g10
aI3
aI4
aS'1 '
p187
asI4
(lp188
g10
aI3
aI18
aS'1 '
p189
assI17
(dp190
I1
(lp191
g10
aI1
aI2
aS'1 '
p192
asI2
(lp193
g10
aI1
aI39
aS'1 '
p194
assI18
(dp195
I1
(lp196
g7
aI18
aS'1 '
p197
asI2
(lp198
g10
aI3
aI18
aS'1 '
p199
asI3
(lp200
g10
aI17
aI18
aS'1 '
p201
assI19
(dp202
I1
(lp203
g7
aI26
aS'1 '
p204
asI2
(lp205
g10
aI25
aI26
aS'1 '
p206
asI3
(lp207
g10
aI26
aI27
aS'1 '
p208
asI4
(lp209
g10
aI26
aI28
aS'1 '
p210
asI5
(lp211
g10
aI26
aI29
aS'1 '
p212
assI20
(dp213
I1
(lp214
g7
aI28
aS'1 '
p215
asI2
(lp216
g10
aI26
aI28
aS'1 '
p217
asI3
(lp218
g10
aI28
aI29
aS'1 '
p219
assI21
(dp220
I1
(lp221
g7
aI24
aS'1 '
p222
asI2
(lp223
g10
aI16
aI24
aS'1 '
p224
asI3
(lp225
g10
aI23
aI24
aS'1 '
p226
assI22
(dp227
I1
(lp228
g7
aI27
aS'1 '
p229
asI2
(lp230
g10
aI17
aI27
aS'1 '
p231
asI3
(lp232
g10
aI26
aI27
aS'1 '
p233
assI23
(dp234
I1
(lp235
g10
aI16
aI17
aS'1 '
p236
asI2
(lp237
g10
aI17
aI18
aS'1 '
p238
asI3
(lp239
g10
aI17
aI27
aS'1 '
p240
assI24
(dp241
I1
(lp242
g7
aI16
aS'1 '
p243
asI2
(lp244
g10
aI15
aI16
aS'1 '
p245
asI3
(lp246
g10
aI16
aI17
aS'1 '
p247
asI4
(lp248
g10
aI16
aI19
aS'1 '
p249
asI5
(lp250
g10
aI16
aI21
aS'1 '
p251
asI6
(lp252
g10
aI16
aI24
aS'1 '
p253
assI25
(dp254
I1
(lp255
g7
aI21
aS'1 '
p256
asI2
(lp257
g10
aI16
aI21
aS'1 '
p258
asI3
(lp259
g10
aI21
aI22
aS'1 '
p260
assI26
(dp261
I1
(lp262
g7
aI15
aS'1 '
p263
asI2
(lp264
g10
aI14
aI15
aS'1 '
p265
asI3
(lp266
g10
aI15
aI16
aS'1 '
p267
assI27
(dp268
I1
(lp269
g10
aI4
aI14
aS'1 '
p270
asI2
(lp271
g10
aI13
aI14
aS'1 '
p272
asI3
(lp273
g10
aI14
aI15
aS'1 '
p274
ass.